
2ae525f01dc69d900c3faac9276c6a8514e916325a39fdf27228b43341aa114a.wasm:	file format wasm 0x1

Section Details:

Type[39]:
 - type[0] (i64) -> i64
 - type[1] (i64, i64) -> i64
 - type[2] (i64, i64, i64) -> i64
 - type[3] () -> i64
 - type[4] (i64, i64, i64, i64) -> i64
 - type[5] (i32, i64) -> nil
 - type[6] (i64, i64) -> i32
 - type[7] (i32, i64, i64, i64) -> nil
 - type[8] (i64, i64, i64, i64) -> nil
 - type[9] (i64, i64, i64) -> nil
 - type[10] (i64, i64) -> nil
 - type[11] (i64) -> i32
 - type[12] (i64) -> nil
 - type[13] (i32, i32) -> i64
 - type[14] (i32, i64, i64) -> nil
 - type[15] (i32, i32, i32, i32) -> i32
 - type[16] (i32, i32, i32, i64) -> nil
 - type[17] (i32, i32) -> i32
 - type[18] () -> nil
 - type[19] (i32, i32, i32) -> nil
 - type[20] (i32, i32, i64, i64) -> nil
 - type[21] (i32, i32, i64, i64, i64) -> nil
 - type[22] (i32, i32, i64) -> i64
 - type[23] (i64, i32) -> nil
 - type[24] (i64, i64, i64, i64, i64, i64, i64, i64) -> i32
 - type[25] (i32) -> nil
 - type[26] (i64, i64, i64, i64, i64, i64) -> i64
 - type[27] (i64, i32, i32) -> i32
 - type[28] (i64, i64, i64, i64, i64) -> i64
 - type[29] (i32) -> i64
 - type[30] (i64, i32, i32) -> nil
 - type[31] (i64, i64, i64, i64, i64, i64, i64) -> i64
 - type[32] (i32, i32) -> nil
 - type[33] (i32, i32, i64) -> nil
 - type[34] (i32, i64, i32, i32) -> nil
 - type[35] (i32, i32, i32) -> i32
 - type[36] (i32, i64, i64, i64, i64, i32) -> nil
 - type[37] (i32, i64, i64, i32) -> nil
 - type[38] (i32, i64, i64, i64, i64) -> nil
Import[26]:
 - func[0] sig=0 <i._> <- i._
 - func[1] sig=0 <i.0> <- i.0
 - func[2] sig=1 <l.1> <- l.1
 - func[3] sig=2 <l._> <- l._
 - func[4] sig=3 <x.7> <- x.7
 - func[5] sig=2 <d._> <- d._
 - func[6] sig=3 <x.4> <- x.4
 - func[7] sig=0 <b.k> <- b.k
 - func[8] sig=0 <b.8> <- b.8
 - func[9] sig=0 <l.6> <- l.6
 - func[10] sig=0 <a.0> <- a.0
 - func[11] sig=1 <l.2> <- l.2
 - func[12] sig=1 <x.1> <- x.1
 - func[13] sig=3 <x.3> <- x.3
 - func[14] sig=3 <x.8> <- x.8
 - func[15] sig=1 <v.g> <- v.g
 - func[16] sig=0 <i.8> <- i.8
 - func[17] sig=0 <i.7> <- i.7
 - func[18] sig=1 <i.6> <- i.6
 - func[19] sig=1 <b.j> <- b.j
 - func[20] sig=1 <b.i> <- b.i
 - func[21] sig=1 <x.0> <- x.0
 - func[22] sig=1 <l.0> <- l.0
 - func[23] sig=0 <x.5> <- x.5
 - func[24] sig=4 <l.7> <- l.7
 - func[25] sig=2 <m.9> <- m.9
Function[166]:
 - func[26] sig=5
 - func[27] sig=5
 - func[28] sig=5
 - func[29] sig=6
 - func[30] sig=5
 - func[31] sig=5
 - func[32] sig=7
 - func[33] sig=2
 - func[34] sig=5
 - func[35] sig=8
 - func[36] sig=9
 - func[37] sig=8
 - func[38] sig=10
 - func[39] sig=1
 - func[40] sig=9
 - func[41] sig=11
 - func[42] sig=12
 - func[43] sig=10
 - func[44] sig=9
 - func[45] sig=1
 - func[46] sig=0
 - func[47] sig=1
 - func[48] sig=13
 - func[49] sig=14
 - func[50] sig=13
 - func[51] sig=15
 - func[52] sig=16
 - func[53] sig=17
 - func[54] sig=18
 - func[55] sig=19
 - func[56] sig=20
 - func[57] sig=19
 - func[58] sig=16
 - func[59] sig=21
 - func[60] sig=22
 - func[61] sig=20
 - func[62] sig=11
 - func[63] sig=23
 - func[64] sig=24
 - func[65] sig=18
 - func[66] sig=11
 - func[67] sig=25
 - func[68] sig=25
 - func[69] sig=5
 - func[70] sig=5
 - func[71] sig=5
 - func[72] sig=25
 - func[73] sig=25
 - func[74] sig=12
 - func[75] sig=25
 - func[76] sig=26
 - func[77] sig=13
 - func[78] sig=11
 - func[79] sig=14
 - func[80] sig=11
 - func[81] sig=27
 - func[82] sig=11
 - func[83] sig=11
 - func[84] sig=24
 - func[85] sig=0 <hello>
 - func[86] sig=13
 - func[87] sig=1 <set_value>
 - func[88] sig=0 <get_value>
 - func[89] sig=0 <upgrade>
 - func[90] sig=2 <initialize>
 - func[91] sig=28 <initialize_with_roles>
 - func[92] sig=29
 - func[93] sig=30
 - func[94] sig=12
 - func[95] sig=3 <is_initialized>
 - func[96] sig=3 <get_id>
 - func[97] sig=3 <get_issuer_name>
 - func[98] sig=3 <get_volume>
 - func[99] sig=1 <operator_only_function>
 - func[100] sig=31 <add_debit_detailed>
 - func[101] sig=31 <edit_debit_detailed>
 - func[102] sig=0 <get_debit_amount>
 - func[103] sig=0 <debit_exists>
 - func[104] sig=0 <has_payment_late>
 - func[105] sig=0 <delete_all_debits>
 - func[106] sig=3 <get_total_debit>
 - func[107] sig=3 <get_total_paid>
 - func[108] sig=3 <get_debit_count>
 - func[109] sig=0 <get_debit_amortization>
 - func[110] sig=0 <get_debit_fee>
 - func[111] sig=0 <get_debit_success_fee>
 - func[112] sig=0 <get_debit_due_date>
 - func[113] sig=0 <is_debit_paid>
 - func[114] sig=26 <pay_debit_detailed>
 - func[115] sig=1 <is_debit_overdue>
 - func[116] sig=0 <get_debit_detailed>
 - func[117] sig=0 <get_debit_detailed_tuple>
 - func[118] sig=1 <add_financial_report>
 - func[119] sig=1 <add_monitor_report>
 - func[120] sig=3 <get_last_financial_report>
 - func[121] sig=3 <get_last_monitor_report>
 - func[122] sig=0 <get_financial_report>
 - func[123] sig=0 <get_monitor_report>
 - func[124] sig=3 <get_financial_reports_count>
 - func[125] sig=3 <get_monitor_reports_count>
 - func[126] sig=4 <set_document_links>
 - func[127] sig=3 <get_risk_analysis_link>
 - func[128] sig=3 <get_collateral_link>
 - func[129] sig=3 <get_contract_link>
 - func[130] sig=1 <set_last_payment>
 - func[131] sig=3 <get_last_payment>
 - func[132] sig=1 <update_proxy_pool_address>
 - func[133] sig=3 <is_pool_configured>
 - func[134] sig=1 <set_pool_info>
 - func[135] sig=3 <get_pool_info>
 - func[136] sig=3 <get_remaining_balance>
 - func[137] sig=3 <get_accumulate>
 - func[138] sig=3 <get_amortization_accumulate>
 - func[139] sig=3 <get_fee_accumulate>
 - func[140] sig=3 <get_total_fee_paid>
 - func[141] sig=3 <get_total_amortization_paid>
 - func[142] sig=0 <get_debit_total_paid>
 - func[143] sig=0 <get_debit_paid_date>
 - func[144] sig=1 <set_pool_address>
 - func[145] sig=3 <get_proxy_pool_address>
 - func[146] sig=4 <operator_redistribute_payment>
 - func[147] sig=1 <has_role>
 - func[148] sig=0 <get_role_member_count>
 - func[149] sig=32
 - func[150] sig=25
 - func[151] sig=1 <get_role_member>
 - func[152] sig=32
 - func[153] sig=0 <get_role_admin>
 - func[154] sig=5
 - func[155] sig=3 <get_admin>
 - func[156] sig=25
 - func[157] sig=2 <grant_role>
 - func[158] sig=10
 - func[159] sig=2 <revoke_role>
 - func[160] sig=10
 - func[161] sig=33
 - func[162] sig=1 <renounce_role>
 - func[163] sig=3 <renounce_admin>
 - func[164] sig=3
 - func[165] sig=1
 - func[166] sig=1 <transfer_admin_role>
 - func[167] sig=25
 - func[168] sig=6
 - func[169] sig=14
 - func[170] sig=34
 - func[171] sig=3 <accept_admin_transfer>
 - func[172] sig=18
 - func[173] sig=1 <set_role_admin>
 - func[174] sig=32
 - func[175] sig=18
 - func[176] sig=19
 - func[177] sig=14
 - func[178] sig=19
 - func[179] sig=18 <_>
 - func[180] sig=5
 - func[181] sig=32
 - func[182] sig=5
 - func[183] sig=29
 - func[184] sig=18
 - func[185] sig=35
 - func[186] sig=36
 - func[187] sig=37
 - func[188] sig=38
 - func[189] sig=38
 - func[190] sig=37
 - func[191] sig=38
Table[1]:
 - table[0] type=funcref initial=1 max=1
Memory[1]:
 - memory[0] pages: initial=17
Global[3]:
 - global[0] i32 mutable=1 - init i32=1048576
 - global[1] i32 mutable=0 <__data_end> - init i32=1049602
 - global[2] i32 mutable=0 <__heap_base> - init i32=1049616
Export[78]:
 - memory[0] -> "memory"
 - func[85] <hello> -> "hello"
 - func[87] <set_value> -> "set_value"
 - func[88] <get_value> -> "get_value"
 - func[89] <upgrade> -> "upgrade"
 - func[90] <initialize> -> "initialize"
 - func[91] <initialize_with_roles> -> "initialize_with_roles"
 - func[95] <is_initialized> -> "is_initialized"
 - func[96] <get_id> -> "get_id"
 - func[97] <get_issuer_name> -> "get_issuer"
 - func[98] <get_volume> -> "get_volume"
 - func[99] <operator_only_function> -> "operator_only_function"
 - func[100] <add_debit_detailed> -> "add_debit_detailed"
 - func[101] <edit_debit_detailed> -> "edit_debit_detailed"
 - func[102] <get_debit_amount> -> "get_debit_amount"
 - func[103] <debit_exists> -> "debit_exists"
 - func[104] <has_payment_late> -> "has_payment_late"
 - func[105] <delete_all_debits> -> "delete_all_debits"
 - func[106] <get_total_debit> -> "get_total_debit"
 - func[107] <get_total_paid> -> "get_total_paid"
 - func[108] <get_debit_count> -> "get_debit_count"
 - func[109] <get_debit_amortization> -> "get_debit_amortization"
 - func[110] <get_debit_fee> -> "get_debit_fee"
 - func[111] <get_debit_success_fee> -> "get_debit_success_fee"
 - func[112] <get_debit_due_date> -> "get_debit_due_date"
 - func[113] <is_debit_paid> -> "is_debit_paid"
 - func[114] <pay_debit_detailed> -> "pay_debit_detailed"
 - func[115] <is_debit_overdue> -> "is_debit_overdue"
 - func[116] <get_debit_detailed> -> "get_debit_detailed"
 - func[117] <get_debit_detailed_tuple> -> "get_debit_detailed_tuple"
 - func[118] <add_financial_report> -> "add_financial_report"
 - func[119] <add_monitor_report> -> "add_monitor_report"
 - func[120] <get_last_financial_report> -> "get_last_financial_report"
 - func[121] <get_last_monitor_report> -> "get_last_monitor_report"
 - func[122] <get_financial_report> -> "get_financial_report"
 - func[123] <get_monitor_report> -> "get_monitor_report"
 - func[124] <get_financial_reports_count> -> "get_financial_reports_count"
 - func[125] <get_monitor_reports_count> -> "get_monitor_reports_count"
 - func[126] <set_document_links> -> "set_document_links"
 - func[127] <get_risk_analysis_link> -> "get_risk_analysis_link"
 - func[128] <get_collateral_link> -> "get_collateral_link"
 - func[129] <get_contract_link> -> "get_contract_link"
 - func[130] <set_last_payment> -> "set_last_payment"
 - func[131] <get_last_payment> -> "get_last_payment"
 - func[132] <update_proxy_pool_address> -> "update_proxy_pool_address"
 - func[133] <is_pool_configured> -> "has_pool_proxy_configured"
 - func[134] <set_pool_info> -> "set_pool_info"
 - func[135] <get_pool_info> -> "get_pool_info"
 - func[136] <get_remaining_balance> -> "get_open_debits"
 - func[137] <get_accumulate> -> "get_accumulate"
 - func[138] <get_amortization_accumulate> -> "get_amortization_accumulate"
 - func[139] <get_fee_accumulate> -> "get_fee_accumulate"
 - func[140] <get_total_fee_paid> -> "get_total_fee_paid"
 - func[141] <get_total_amortization_paid> -> "get_total_amortization_paid"
 - func[142] <get_debit_total_paid> -> "get_debit_total_paid"
 - func[143] <get_debit_paid_date> -> "get_debit_paid_date"
 - func[144] <set_pool_address> -> "set_pool_address"
 - func[145] <get_proxy_pool_address> -> "get_pool_address"
 - func[146] <operator_redistribute_payment> -> "operator_redistribute_payment"
 - func[147] <has_role> -> "has_role"
 - func[148] <get_role_member_count> -> "get_role_member_count"
 - func[151] <get_role_member> -> "get_role_member"
 - func[153] <get_role_admin> -> "get_role_admin"
 - func[155] <get_admin> -> "get_admin"
 - func[157] <grant_role> -> "grant_role"
 - func[159] <revoke_role> -> "revoke_role"
 - func[162] <renounce_role> -> "renounce_role"
 - func[163] <renounce_admin> -> "renounce_admin"
 - func[166] <transfer_admin_role> -> "transfer_admin_role"
 - func[171] <accept_admin_transfer> -> "accept_admin_transfer"
 - func[173] <set_role_admin> -> "set_role_admin"
 - func[179] <_> -> "_"
 - func[97] <get_issuer_name> -> "get_issuer_name"
 - func[136] <get_remaining_balance> -> "get_remaining_balance"
 - func[145] <get_proxy_pool_address> -> "get_proxy_pool_address"
 - func[133] <is_pool_configured> -> "is_pool_configured"
 - global[1] -> "__data_end"
 - global[2] -> "__heap_base"
Code[166]:
 - func[26] size=59
 - func[27] size=93
 - func[28] size=84
 - func[29] size=15
 - func[30] size=131
 - func[31] size=125
 - func[32] size=81
 - func[33] size=92
 - func[34] size=69
 - func[35] size=25
 - func[36] size=16
 - func[37] size=23
 - func[38] size=15
 - func[39] size=67
 - func[40] size=15
 - func[41] size=61
 - func[42] size=15
 - func[43] size=14
 - func[44] size=16
 - func[45] size=13
 - func[46] size=65
 - func[47] size=60
 - func[48] size=26
 - func[49] size=91
 - func[50] size=743
 - func[51] size=35
 - func[52] size=324
 - func[53] size=453
 - func[54] size=242
 - func[55] size=194
 - func[56] size=62
 - func[57] size=126
 - func[58] size=152
 - func[59] size=81
 - func[60] size=129
 - func[61] size=79
 - func[62] size=123
 - func[63] size=78
 - func[64] size=141
 - func[65] size=9
 - func[66] size=80
 - func[67] size=18
 - func[68] size=18
 - func[69] size=20
 - func[70] size=20
 - func[71] size=20
 - func[72] size=96
 - func[73] size=96
 - func[74] size=27
 - func[75] size=83
 - func[76] size=305
 - func[77] size=69
 - func[78] size=66
 - func[79] size=114
 - func[80] size=131
 - func[81] size=58
 - func[82] size=61
 - func[83] size=15
 - func[84] size=729
 - func[85] size=184 <hello>
 - func[86] size=26
 - func[87] size=73 <set_value>
 - func[88] size=88 <get_value>
 - func[89] size=64 <upgrade>
 - func[90] size=337 <initialize>
 - func[91] size=460 <initialize_with_roles>
 - func[92] size=473
 - func[93] size=288
 - func[94] size=11
 - func[95] size=27 <is_initialized>
 - func[96] size=70 <get_id>
 - func[97] size=70 <get_issuer_name>
 - func[98] size=70 <get_volume>
 - func[99] size=62 <operator_only_function>
 - func[100] size=1131 <add_debit_detailed>
 - func[101] size=523 <edit_debit_detailed>
 - func[102] size=96 <get_debit_amount>
 - func[103] size=39 <debit_exists>
 - func[104] size=397 <has_payment_late>
 - func[105] size=326 <delete_all_debits>
 - func[106] size=62 <get_total_debit>
 - func[107] size=62 <get_total_paid>
 - func[108] size=70 <get_debit_count>
 - func[109] size=88 <get_debit_amortization>
 - func[110] size=88 <get_debit_fee>
 - func[111] size=88 <get_debit_success_fee>
 - func[112] size=125 <get_debit_due_date>
 - func[113] size=39 <is_debit_paid>
 - func[114] size=1509 <pay_debit_detailed>
 - func[115] size=181 <is_debit_overdue>
 - func[116] size=703 <get_debit_detailed>
 - func[117] size=417 <get_debit_detailed_tuple>
 - func[118] size=252 <add_financial_report>
 - func[119] size=252 <add_monitor_report>
 - func[120] size=156 <get_last_financial_report>
 - func[121] size=156 <get_last_monitor_report>
 - func[122] size=175 <get_financial_report>
 - func[123] size=175 <get_monitor_report>
 - func[124] size=62 <get_financial_reports_count>
 - func[125] size=62 <get_monitor_reports_count>
 - func[126] size=359 <set_document_links>
 - func[127] size=72 <get_risk_analysis_link>
 - func[128] size=72 <get_collateral_link>
 - func[129] size=72 <get_contract_link>
 - func[130] size=162 <set_last_payment>
 - func[131] size=72 <get_last_payment>
 - func[132] size=48 <update_proxy_pool_address>
 - func[133] size=51 <is_pool_configured>
 - func[134] size=71 <set_pool_info>
 - func[135] size=76 <get_pool_info>
 - func[136] size=129 <get_remaining_balance>
 - func[137] size=70 <get_accumulate>
 - func[138] size=70 <get_amortization_accumulate>
 - func[139] size=70 <get_fee_accumulate>
 - func[140] size=70 <get_total_fee_paid>
 - func[141] size=70 <get_total_amortization_paid>
 - func[142] size=96 <get_debit_total_paid>
 - func[143] size=52 <get_debit_paid_date>
 - func[144] size=78 <set_pool_address>
 - func[145] size=62 <get_proxy_pool_address>
 - func[146] size=320 <operator_redistribute_payment>
 - func[147] size=119 <has_role>
 - func[148] size=134 <get_role_member_count>
 - func[149] size=90
 - func[150] size=22
 - func[151] size=159 <get_role_member>
 - func[152] size=77
 - func[153] size=88 <get_role_admin>
 - func[154] size=116
 - func[155] size=62 <get_admin>
 - func[156] size=81
 - func[157] size=136 <grant_role>
 - func[158] size=179
 - func[159] size=228 <revoke_role>
 - func[160] size=375
 - func[161] size=88
 - func[162] size=206 <renounce_role>
 - func[163] size=66 <renounce_admin>
 - func[164] size=87
 - func[165] size=148
 - func[166] size=347 <transfer_admin_role>
 - func[167] size=81
 - func[168] size=13
 - func[169] size=21
 - func[170] size=37
 - func[171] size=186 <accept_admin_transfer>
 - func[172] size=17
 - func[173] size=399 <set_role_admin>
 - func[174] size=90
 - func[175] size=3
 - func[176] size=219
 - func[177] size=72
 - func[178] size=81
 - func[179] size=2 <_>
 - func[180] size=68
 - func[181] size=28
 - func[182] size=14
 - func[183] size=172
 - func[184] size=17
 - func[185] size=74
 - func[186] size=469
 - func[187] size=87
 - func[188] size=1105
 - func[189] size=161
 - func[190] size=87
 - func[191] size=110
Data[1]:
 - segment[0] memory=0 size=1026 - init i32=1048576
  - 0100000: 696e 6974 6964 6973 7375 6572 766f 6c75  initidissuervolu
  - 0100010: 6d65 746f 7461 6c74 7061 6964 636f 756e  metotaltpaidcoun
  - 0100020: 7461 6363 756d 616d 7274 5f61 6363 6665  taccumamrt_accfe
  - 0100030: 655f 6163 6374 6665 655f 7064 7461 6d72  e_acctfee_pdtamr
  - 0100040: 745f 7064 6669 6e5f 7265 706f 7274 735f  t_pdfin_reports_
  - 0100050: 636f 756e 746d 6f6e 5f72 6570 6f72 7473  countmon_reports
  - 0100060: 5f63 6f75 6e74 6c61 7374 5f70 6179 6d65  _countlast_payme
  - 0100070: 6e74 7269 736b 5f61 6e61 6c79 7369 735f  ntrisk_analysis_
  - 0100080: 6c69 6e6b 636f 6c6c 6174 6572 616c 5f6c  linkcollateral_l
  - 0100090: 696e 6b63 6f6e 7472 6163 745f 6c69 6e6b  inkcontract_link
  - 01000a0: 706f 6f6c 5f70 726f 7879 5f61 6464 7265  pool_proxy_addre
  - 01000b0: 7373 706f 6f6c 5f6e 616d 6564 6562 6974  sspool_namedebit
  - 01000c0: 5f72 6567 6973 7472 795f 636f 756e 746f  _registry_counto
  - 01000d0: 7065 6e64 6562 6974 5f61 6d74 6465 6269  pendebit_amtdebi
  - 01000e0: 745f 616d 6f72 7464 6562 6974 5f66 6565  t_amortdebit_fee
  - 01000f0: 6465 6269 745f 7366 6565 6465 6269 745f  debit_sfeedebit_
  - 0100100: 6475 6564 6562 6974 5f70 6169 6464 6562  duedebit_paiddeb
  - 0100110: 6974 5f70 6461 7465 6465 6269 745f 7470  it_pdatedebit_tp
  - 0100120: 6169 6464 6562 6974 5f72 6567 6973 7472  aiddebit_registr
  - 0100130: 7972 6973 6b5f 6c69 6e6b 636f 6c6c 5f6c  yrisk_linkcoll_l
  - 0100140: 696e 6b63 6f6e 745f 6c69 6e6b 706f 6f6c  inkcont_linkpool
  - 0100150: 5f61 6464 726c 6173 745f 7061 7964 7265  _addrlast_paydre
  - 0100160: 675f 636e 7448 656c 6c6f 6e6f 745f 666f  g_cntHellonot_fo
  - 0100170: 756e 646e 6f5f 616d 6f72 7468 6173 5f61  undno_amorthas_a
  - 0100180: 6d6f 7274 6e6f 5f66 6565 6861 735f 6665  mortno_feehas_fe
  - 0100190: 656e 6f5f 7366 6565 6861 735f 7366 6565  eno_sfeehas_sfee
  - 01001a0: 6e6f 745f 7061 6964 6973 5f70 6169 646e  not_paidis_paidn
  - 01001b0: 6f5f 7061 796d 656e 7473 6861 735f 7061  o_paymentshas_pa
  - 01001c0: 796d 656e 7473 6e6f 5f64 6562 6974 735f  ymentsno_debits_
  - 01001d0: 746f 5f64 656c 6574 6561 6c6c 5f64 6562  to_deleteall_deb
  - 01001e0: 6974 735f 6465 6c65 7465 6463 7265 6469  its_deletedcredi
  - 01001f0: 745f 6465 6d61 6e64 5f70 6179 5f69 6e76  t_demand_pay_inv
  - 0100200: 6573 746f 7273 5f73 6272 6c75 6e61 7574  estors_sbrlunaut
  - 0100210: 6800 0000 0000 0000 0eb9 6c06 fbec 0200  h.........l.....
  - 0100220: 0eac 7b06 b96c 0200 0e71 6cca 7890 cb26  ..{..l...ql.x..&
  - 0100230: 0e31 bd07 fbec 0200 0eac 7b06 31bd 0300  .1........{.1...
  - 0100240: 0e71 6cca 7810 d33b 0e32 eeca 417e a600  .ql.x..;.2..A~..
  - 0100250: 0e3c 1d07 f92d 9b00 0e2d ebb6 81aa ae00  .<...-...-......
  - 0100260: 0e2d ebb6 81aa ae38 0ebd 2907 be59 0300  .-.....8..)..Y..
  - 0100270: 0e39 6ed6 81aa a700 0eb7 b906 aa9e 0200  .9n.............
  - 0100280: 0e33 4de3 81aa a700 0eb9 be06 be59 0300  .3M..........Y..
  - 0100290: 0e69 4c07 be59 0300 0e7e 5ecb 6a90 ba00  .iL..Y...~^.j...
  - 01002a0: 0eb3 1a07 a90b 0000 0eb9 bc06 a90b 0000  ................
  - 01002b0: 0eb3 1a07 b28f 0300 0eb9 bc06 b28f 0300  ................
  - 01002c0: 0ef9 4db7 7870 e738 0eec 4cc7 c19d e300  ..M.xp.8..L.....
  - 01002d0: 0eb7 d9a2 c13e bb00 0ef9 4db7 7810 df3a  .....>....M.x..:
  - 01002e0: 0eec 4cc7 417c eb00 0e74 4edf 7510 df3a  ..L.A|...tN.u..:
  - 01002f0: 0eb9 3bbb 414e cf00 0ee9 bcce 417e a600  ..;.AN......A~..
  - 0100300: 0e39 eef6 6a90 9f29 0e6d ae9b b30e 0000  .9..j..).m......
  - 0100310: 0400 0000 0000 0000 0000 0000 0000 0000  ................
  - 0100320: 0000 0000 0000 0000 0500 0000 0000 0000  ................
  - 0100330: 0000 0000 0000 0000 0000 0000 0000 0000  ................
  - 0100340: 726f 6c65 5f67 7261 6e74 6564 726f 6c65  role_grantedrole
  - 0100350: 5f72 6576 6f6b 6564 726f 6c65 5f61 646d  _revokedrole_adm
  - 0100360: 696e 5f63 6861 6e67 6564 6164 6d69 6e5f  in_changedadmin_
  - 0100370: 7472 616e 7366 6572 5f69 6e69 7469 6174  transfer_initiat
  - 0100380: 6564 6164 6d69 6e5f 7472 616e 7366 6572  edadmin_transfer
  - 0100390: 5f63 6f6d 706c 6574 6564 6164 6d69 6e5f  _completedadmin_
  - 01003a0: 7265 6e6f 756e 6365 6469 6e64 6578 726f  renouncedindexro
  - 01003b0: 6c65 0000 a903 1000 0500 0000 ae03 1000  le..............
  - 01003c0: 0400 0000 526f 6c65 4163 636f 756e 7473  ....RoleAccounts
  - 01003d0: 4861 7352 6f6c 6552 6f6c 6541 6363 6f75  HasRoleRoleAccou
  - 01003e0: 6e74 7343 6f75 6e74 526f 6c65 4164 6d69  ntsCountRoleAdmi
  - 01003f0: 6e41 646d 696e 5065 6e64 696e 6741 646d  nAdminPendingAdm
  - 0100400: 696e                                     in
Custom:
 - name: "contractspecv0"
Custom:
 - name: "contractenvmetav0"
Custom:
 - name: "contractmetav0"

Code Disassembly:

000897 func[26]:
 000898: 02 40                      | block
 00089a: 02 40                      |   block
 00089c: 20 01                      |     local.get 1
 00089e: 42 ff ff ff ff ff ff ff ff |     i64.const 72057594037927935
 0008a7: 00                         | 
 0008a8: 56                         |     i64.gt_u
 0008a9: 0d 00                      |     br_if 0
 0008ab: 20 01                      |     local.get 1
 0008ad: 42 08                      |     i64.const 8
 0008af: 86                         |     i64.shl
 0008b0: 42 06                      |     i64.const 6
 0008b2: 84                         |     i64.or
 0008b3: 21 01                      |     local.set 1
 0008b5: 0c 01                      |     br 1
 0008b7: 0b                         |   end
 0008b8: 20 01                      |   local.get 1
 0008ba: 10 80 80 80 80 00          |   call 0 <i._>
 0008c0: 21 01                      |   local.set 1
 0008c2: 0b                         | end
 0008c3: 20 00                      | local.get 0
 0008c5: 42 00                      | i64.const 0
 0008c7: 37 03 00                   | i64.store 3 0
 0008ca: 20 00                      | local.get 0
 0008cc: 20 01                      | local.get 1
 0008ce: 37 03 08                   | i64.store 3 8
 0008d1: 0b                         | end
0008d3 func[27]:
 0008d4: 01 7f                      | local[2] type=i32
 0008d6: 01 7e                      | local[3] type=i64
 0008d8: 02 40                      | block
 0008da: 02 40                      |   block
 0008dc: 20 01                      |     local.get 1
 0008de: a7                         |     i32.wrap_i64
 0008df: 41 ff 01                   |     i32.const 255
 0008e2: 71                         |     i32.and
 0008e3: 22 02                      |     local.tee 2
 0008e5: 41 c0 00                   |     i32.const 64
 0008e8: 46                         |     i32.eq
 0008e9: 0d 00                      |     br_if 0
 0008eb: 02 40                      |     block
 0008ed: 20 02                      |       local.get 2
 0008ef: 41 06                      |       i32.const 6
 0008f1: 46                         |       i32.eq
 0008f2: 0d 00                      |       br_if 0
 0008f4: 42 01                      |       i64.const 1
 0008f6: 21 03                      |       local.set 3
 0008f8: 42 83 90 80 80 80 01       |       i64.const 34359740419
 0008ff: 21 01                      |       local.set 1
 000901: 0c 02                      |       br 2
 000903: 0b                         |     end
 000904: 20 01                      |     local.get 1
 000906: 42 08                      |     i64.const 8
 000908: 88                         |     i64.shr_u
 000909: 21 01                      |     local.set 1
 00090b: 42 00                      |     i64.const 0
 00090d: 21 03                      |     local.set 3
 00090f: 0c 01                      |     br 1
 000911: 0b                         |   end
 000912: 42 00                      |   i64.const 0
 000914: 21 03                      |   local.set 3
 000916: 20 01                      |   local.get 1
 000918: 10 81 80 80 80 00          |   call 1 <i.0>
 00091e: 21 01                      |   local.set 1
 000920: 0b                         | end
 000921: 20 00                      | local.get 0
 000923: 20 03                      | local.get 3
 000925: 37 03 00                   | i64.store 3 0
 000928: 20 00                      | local.get 0
 00092a: 20 01                      | local.get 1
 00092c: 37 03 08                   | i64.store 3 8
 00092f: 0b                         | end
000931 func[28]:
 000932: 01 7e                      | local[2] type=i64
 000934: 01 7f                      | local[3] type=i32
 000936: 42 00                      | i64.const 0
 000938: 21 02                      | local.set 2
 00093a: 02 40                      | block
 00093c: 02 40                      |   block
 00093e: 20 01                      |     local.get 1
 000940: 42 01                      |     i64.const 1
 000942: 10 9d 80 80 80 00          |     call 29
 000948: 45                         |     i32.eqz
 000949: 0d 00                      |     br_if 0
 00094b: 02 40                      |     block
 00094d: 20 01                      |       local.get 1
 00094f: 42 01                      |       i64.const 1
 000951: 10 82 80 80 80 00          |       call 2 <l.1>
 000957: 22 01                      |       local.tee 1
 000959: a7                         |       i32.wrap_i64
 00095a: 41 ff 01                   |       i32.const 255
 00095d: 71                         |       i32.and
 00095e: 22 03                      |       local.tee 3
 000960: 41 0e                      |       i32.const 14
 000962: 46                         |       i32.eq
 000963: 0d 00                      |       br_if 0
 000965: 20 03                      |       local.get 3
 000967: 41 ca 00                   |       i32.const 74
 00096a: 47                         |       i32.ne
 00096b: 0d 02                      |       br_if 2
 00096d: 0b                         |     end
 00096e: 20 00                      |     local.get 0
 000970: 20 01                      |     local.get 1
 000972: 37 03 08                   |     i64.store 3 8
 000975: 42 01                      |     i64.const 1
 000977: 21 02                      |     local.set 2
 000979: 0b                         |   end
 00097a: 20 00                      |   local.get 0
 00097c: 20 02                      |   local.get 2
 00097e: 37 03 00                   |   i64.store 3 0
 000981: 0f                         |   return
 000982: 0b                         | end
 000983: 00                         | unreachable
 000984: 0b                         | end
000986 func[29]:
 000987: 20 00                      | local.get 0
 000989: 20 01                      | local.get 1
 00098b: 10 96 80 80 80 00          | call 22 <l.0>
 000991: 42 01                      | i64.const 1
 000993: 51                         | i64.eq
 000994: 0b                         | end
000997 func[30]:
 000998: 01 7f                      | local[2] type=i32
 00099a: 23 80 80 80 80 00          | global.get 0
 0009a0: 41 20                      | i32.const 32
 0009a2: 6b                         | i32.sub
 0009a3: 22 02                      | local.tee 2
 0009a5: 24 80 80 80 80 00          | global.set 0
 0009ab: 02 40                      | block
 0009ad: 02 40                      |   block
 0009af: 02 40                      |     block
 0009b1: 20 01                      |       local.get 1
 0009b3: 42 01                      |       i64.const 1
 0009b5: 10 9d 80 80 80 00          |       call 29
 0009bb: 0d 00                      |       br_if 0
 0009bd: 42 00                      |       i64.const 0
 0009bf: 21 01                      |       local.set 1
 0009c1: 0c 01                      |       br 1
 0009c3: 0b                         |     end
 0009c4: 20 02                      |     local.get 2
 0009c6: 20 01                      |     local.get 1
 0009c8: 42 01                      |     i64.const 1
 0009ca: 10 82 80 80 80 00          |     call 2 <l.1>
 0009d0: 10 9f 80 80 80 00          |     call 31
 0009d6: 20 02                      |     local.get 2
 0009d8: 28 02 00                   |     i32.load 2 0
 0009db: 41 01                      |     i32.const 1
 0009dd: 46                         |     i32.eq
 0009de: 0d 01                      |     br_if 1
 0009e0: 20 02                      |     local.get 2
 0009e2: 29 03 10                   |     i64.load 3 16
 0009e5: 21 01                      |     local.set 1
 0009e7: 20 00                      |     local.get 0
 0009e9: 20 02                      |     local.get 2
 0009eb: 29 03 18                   |     i64.load 3 24
 0009ee: 37 03 18                   |     i64.store 3 24
 0009f1: 20 00                      |     local.get 0
 0009f3: 20 01                      |     local.get 1
 0009f5: 37 03 10                   |     i64.store 3 16
 0009f8: 42 01                      |     i64.const 1
 0009fa: 21 01                      |     local.set 1
 0009fc: 0b                         |   end
 0009fd: 20 00                      |   local.get 0
 0009ff: 20 01                      |   local.get 1
 000a01: 37 03 00                   |   i64.store 3 0
 000a04: 20 00                      |   local.get 0
 000a06: 42 00                      |   i64.const 0
 000a08: 37 03 08                   |   i64.store 3 8
 000a0b: 20 02                      |   local.get 2
 000a0d: 41 20                      |   i32.const 32
 000a0f: 6a                         |   i32.add
 000a10: 24 80 80 80 80 00          |   global.set 0
 000a16: 0f                         |   return
 000a17: 0b                         | end
 000a18: 00                         | unreachable
 000a19: 0b                         | end
000a1b func[31]:
 000a1c: 01 7f                      | local[2] type=i32
 000a1e: 01 7e                      | local[3] type=i64
 000a20: 02 40                      | block
 000a22: 02 40                      |   block
 000a24: 02 40                      |     block
 000a26: 02 40                      |       block
 000a28: 20 01                      |         local.get 1
 000a2a: a7                         |         i32.wrap_i64
 000a2b: 41 ff 01                   |         i32.const 255
 000a2e: 71                         |         i32.and
 000a2f: 22 02                      |         local.tee 2
 000a31: 41 c5 00                   |         i32.const 69
 000a34: 46                         |         i32.eq
 000a35: 0d 00                      |         br_if 0
 000a37: 20 02                      |         local.get 2
 000a39: 41 0b                      |         i32.const 11
 000a3b: 47                         |         i32.ne
 000a3c: 0d 02                      |         br_if 2
 000a3e: 20 00                      |         local.get 0
 000a40: 20 01                      |         local.get 1
 000a42: 42 3f                      |         i64.const 63
 000a44: 87                         |         i64.shr_s
 000a45: 37 03 18                   |         i64.store 3 24
 000a48: 20 00                      |         local.get 0
 000a4a: 20 01                      |         local.get 1
 000a4c: 42 08                      |         i64.const 8
 000a4e: 87                         |         i64.shr_s
 000a4f: 37 03 10                   |         i64.store 3 16
 000a52: 0c 01                      |         br 1
 000a54: 0b                         |       end
 000a55: 20 01                      |       local.get 1
 000a57: 10 90 80 80 80 00          |       call 16 <i.8>
 000a5d: 21 03                      |       local.set 3
 000a5f: 20 01                      |       local.get 1
 000a61: 10 91 80 80 80 00          |       call 17 <i.7>
 000a67: 21 01                      |       local.set 1
 000a69: 20 00                      |       local.get 0
 000a6b: 20 03                      |       local.get 3
 000a6d: 37 03 18                   |       i64.store 3 24
 000a70: 20 00                      |       local.get 0
 000a72: 20 01                      |       local.get 1
 000a74: 37 03 10                   |       i64.store 3 16
 000a77: 0b                         |     end
 000a78: 42 00                      |     i64.const 0
 000a7a: 21 01                      |     local.set 1
 000a7c: 0c 01                      |     br 1
 000a7e: 0b                         |   end
 000a7f: 20 00                      |   local.get 0
 000a81: 42 83 90 80 80 80 01       |   i64.const 34359740419
 000a88: 37 03 08                   |   i64.store 3 8
 000a8b: 42 01                      |   i64.const 1
 000a8d: 21 01                      |   local.set 1
 000a8f: 0b                         | end
 000a90: 20 00                      | local.get 0
 000a92: 20 01                      | local.get 1
 000a94: 37 03 00                   | i64.store 3 0
 000a97: 0b                         | end
000a99 func[32]:
 000a9a: 01 7e                      | local[4] type=i64
 000a9c: 42 00                      | i64.const 0
 000a9e: 21 04                      | local.set 4
 000aa0: 02 40                      | block
 000aa2: 02 40                      |   block
 000aa4: 20 01                      |     local.get 1
 000aa6: 20 02                      |     local.get 2
 000aa8: 20 03                      |     local.get 3
 000aaa: 10 a1 80 80 80 00          |     call 33
 000ab0: 22 03                      |     local.tee 3
 000ab2: 42 01                      |     i64.const 1
 000ab4: 10 9d 80 80 80 00          |     call 29
 000aba: 45                         |     i32.eqz
 000abb: 0d 00                      |     br_if 0
 000abd: 20 03                      |     local.get 3
 000abf: 42 01                      |     i64.const 1
 000ac1: 10 82 80 80 80 00          |     call 2 <l.1>
 000ac7: 22 04                      |     local.tee 4
 000ac9: 42 ff 01                   |     i64.const 255
 000acc: 83                         |     i64.and
 000acd: 42 c9 00                   |     i64.const 73
 000ad0: 52                         |     i64.ne
 000ad1: 0d 01                      |     br_if 1
 000ad3: 20 00                      |     local.get 0
 000ad5: 20 04                      |     local.get 4
 000ad7: 37 03 08                   |     i64.store 3 8
 000ada: 42 01                      |     i64.const 1
 000adc: 21 04                      |     local.set 4
 000ade: 0b                         |   end
 000adf: 20 00                      |   local.get 0
 000ae1: 20 04                      |   local.get 4
 000ae3: 37 03 00                   |   i64.store 3 0
 000ae6: 0f                         |   return
 000ae7: 0b                         | end
 000ae8: 00                         | unreachable
 000ae9: 0b                         | end
000aeb func[33]:
 000aec: 01 7f                      | local[3] type=i32
 000aee: 23 80 80 80 80 00          | global.get 0
 000af4: 41 20                      | i32.const 32
 000af6: 6b                         | i32.sub
 000af7: 22 03                      | local.tee 3
 000af9: 24 80 80 80 80 00          | global.set 0
 000aff: 20 03                      | local.get 3
 000b01: 41 10                      | i32.const 16
 000b03: 6a                         | i32.add
 000b04: 20 01                      | local.get 1
 000b06: 20 02                      | local.get 2
 000b08: 10 b1 80 80 80 00          | call 49
 000b0e: 02 40                      | block
 000b10: 20 03                      |   local.get 3
 000b12: 28 02 10                   |   i32.load 2 16
 000b15: 41 01                      |   i32.const 1
 000b17: 47                         |   i32.ne
 000b18: 0d 00                      |   br_if 0
 000b1a: 00                         |   unreachable
 000b1b: 0b                         | end
 000b1c: 20 03                      | local.get 3
 000b1e: 20 03                      | local.get 3
 000b20: 29 03 18                   | i64.load 3 24
 000b23: 37 03 08                   | i64.store 3 8
 000b26: 20 03                      | local.get 3
 000b28: 20 00                      | local.get 0
 000b2a: 37 03 00                   | i64.store 3 0
 000b2d: 20 03                      | local.get 3
 000b2f: 41 02                      | i32.const 2
 000b31: 10 b0 80 80 80 00          | call 48
 000b37: 21 02                      | local.set 2
 000b39: 20 03                      | local.get 3
 000b3b: 41 20                      | i32.const 32
 000b3d: 6a                         | i32.add
 000b3e: 24 80 80 80 80 00          | global.set 0
 000b44: 20 02                      | local.get 2
 000b46: 0b                         | end
000b48 func[34]:
 000b49: 01 7e                      | local[2] type=i64
 000b4b: 42 00                      | i64.const 0
 000b4d: 21 02                      | local.set 2
 000b4f: 02 40                      | block
 000b51: 02 40                      |   block
 000b53: 20 01                      |     local.get 1
 000b55: 42 01                      |     i64.const 1
 000b57: 10 9d 80 80 80 00          |     call 29
 000b5d: 45                         |     i32.eqz
 000b5e: 0d 00                      |     br_if 0
 000b60: 20 01                      |     local.get 1
 000b62: 42 01                      |     i64.const 1
 000b64: 10 82 80 80 80 00          |     call 2 <l.1>
 000b6a: 22 01                      |     local.tee 1
 000b6c: 42 ff 01                   |     i64.const 255
 000b6f: 83                         |     i64.and
 000b70: 42 c9 00                   |     i64.const 73
 000b73: 52                         |     i64.ne
 000b74: 0d 01                      |     br_if 1
 000b76: 20 00                      |     local.get 0
 000b78: 20 01                      |     local.get 1
 000b7a: 37 03 08                   |     i64.store 3 8
 000b7d: 42 01                      |     i64.const 1
 000b7f: 21 02                      |     local.set 2
 000b81: 0b                         |   end
 000b82: 20 00                      |   local.get 0
 000b84: 20 02                      |   local.get 2
 000b86: 37 03 00                   |   i64.store 3 0
 000b89: 0f                         |   return
 000b8a: 0b                         | end
 000b8b: 00                         | unreachable
 000b8c: 0b                         | end
000b8e func[35]:
 000b8f: 20 00                      | local.get 0
 000b91: 20 01                      | local.get 1
 000b93: 20 02                      | local.get 2
 000b95: 10 a1 80 80 80 00          | call 33
 000b9b: 20 03                      | local.get 3
 000b9d: 42 01                      | i64.const 1
 000b9f: 10 83 80 80 80 00          | call 3 <l._>
 000ba5: 1a                         | drop
 000ba6: 0b                         | end
000ba8 func[36]:
 000ba9: 20 00                      | local.get 0
 000bab: 20 01                      | local.get 1
 000bad: 20 02                      | local.get 2
 000baf: 42 01                      | i64.const 1
 000bb1: 10 a5 80 80 80 00          | call 37
 000bb7: 0b                         | end
000bb9 func[37]:
 000bba: 20 00                      | local.get 0
 000bbc: 20 01                      | local.get 1
 000bbe: 20 02                      | local.get 2
 000bc0: 10 a7 80 80 80 00          | call 39
 000bc6: 20 03                      | local.get 3
 000bc8: 10 83 80 80 80 00          | call 3 <l._>
 000bce: 1a                         | drop
 000bcf: 0b                         | end
000bd1 func[38]:
 000bd2: 20 00                      | local.get 0
 000bd4: 20 01                      | local.get 1
 000bd6: 42 01                      | i64.const 1
 000bd8: 10 83 80 80 80 00          | call 3 <l._>
 000bde: 1a                         | drop
 000bdf: 0b                         | end
000be1 func[39]:
 000be2: 01 7f                      | local[2] type=i32
 000be4: 23 80 80 80 80 00          | global.get 0
 000bea: 41 10                      | i32.const 16
 000bec: 6b                         | i32.sub
 000bed: 22 02                      | local.tee 2
 000bef: 24 80 80 80 80 00          | global.set 0
 000bf5: 20 02                      | local.get 2
 000bf7: 20 00                      | local.get 0
 000bf9: 20 01                      | local.get 1
 000bfb: 10 b1 80 80 80 00          | call 49
 000c01: 02 40                      | block
 000c03: 20 02                      |   local.get 2
 000c05: 28 02 00                   |   i32.load 2 0
 000c08: 41 01                      |   i32.const 1
 000c0a: 47                         |   i32.ne
 000c0b: 0d 00                      |   br_if 0
 000c0d: 00                         |   unreachable
 000c0e: 0b                         | end
 000c0f: 20 02                      | local.get 2
 000c11: 29 03 08                   | i64.load 3 8
 000c14: 21 01                      | local.set 1
 000c16: 20 02                      | local.get 2
 000c18: 41 10                      | i32.const 16
 000c1a: 6a                         | i32.add
 000c1b: 24 80 80 80 80 00          | global.set 0
 000c21: 20 01                      | local.get 1
 000c23: 0b                         | end
000c25 func[40]:
 000c26: 20 00                      | local.get 0
 000c28: 20 01                      | local.get 1
 000c2a: 20 02                      | local.get 2
 000c2c: 10 83 80 80 80 00          | call 3 <l._>
 000c32: 1a                         | drop
 000c33: 0b                         | end
000c35 func[41]:
 000c36: 01 7f                      | local[1] type=i32
 000c38: 41 02                      | i32.const 2
 000c3a: 21 01                      | local.set 1
 000c3c: 02 40                      | block
 000c3e: 20 00                      |   local.get 0
 000c40: 42 02                      |   i64.const 2
 000c42: 10 9d 80 80 80 00          |   call 29
 000c48: 45                         |   i32.eqz
 000c49: 0d 00                      |   br_if 0
 000c4b: 41 01                      |   i32.const 1
 000c4d: 21 01                      |   local.set 1
 000c4f: 02 40                      |   block
 000c51: 02 40                      |     block
 000c53: 20 00                      |       local.get 0
 000c55: 42 02                      |       i64.const 2
 000c57: 10 82 80 80 80 00          |       call 2 <l.1>
 000c5d: a7                         |       i32.wrap_i64
 000c5e: 41 ff 01                   |       i32.const 255
 000c61: 71                         |       i32.and
 000c62: 0e 02 01 02 00             |       br_table 1 2 0
 000c67: 0b                         |     end
 000c68: 00                         |     unreachable
 000c69: 0b                         |   end
 000c6a: 41 00                      |   i32.const 0
 000c6c: 21 01                      |   local.set 1
 000c6e: 0b                         | end
 000c6f: 20 01                      | local.get 1
 000c71: 0b                         | end
000c73 func[42]:
 000c74: 20 00                      | local.get 0
 000c76: 42 01                      | i64.const 1
 000c78: 42 02                      | i64.const 2
 000c7a: 10 83 80 80 80 00          | call 3 <l._>
 000c80: 1a                         | drop
 000c81: 0b                         | end
000c83 func[43]:
 000c84: 20 00                      | local.get 0
 000c86: 20 01                      | local.get 1
 000c88: 42 02                      | i64.const 2
 000c8a: 10 a8 80 80 80 00          | call 40
 000c90: 0b                         | end
000c92 func[44]:
 000c93: 20 00                      | local.get 0
 000c95: 20 01                      | local.get 1
 000c97: 20 02                      | local.get 2
 000c99: 42 02                      | i64.const 2
 000c9b: 10 a5 80 80 80 00          | call 37
 000ca1: 0b                         | end
000ca3 func[45]:
 000ca4: 20 01                      | local.get 1
 000ca6: 42 02                      | i64.const 2
 000ca8: 20 00                      | local.get 0
 000caa: a7                         | i32.wrap_i64
 000cab: 41 01                      | i32.const 1
 000cad: 71                         | i32.and
 000cae: 1b                         | select
 000caf: 0b                         | end
000cb1 func[46]:
 000cb2: 01 7f                      | local[1] type=i32
 000cb4: 23 80 80 80 80 00          | global.get 0
 000cba: 41 10                      | i32.const 16
 000cbc: 6b                         | i32.sub
 000cbd: 22 01                      | local.tee 1
 000cbf: 24 80 80 80 80 00          | global.set 0
 000cc5: 20 01                      | local.get 1
 000cc7: 20 00                      | local.get 0
 000cc9: 10 9a 80 80 80 00          | call 26
 000ccf: 02 40                      | block
 000cd1: 20 01                      |   local.get 1
 000cd3: 28 02 00                   |   i32.load 2 0
 000cd6: 41 01                      |   i32.const 1
 000cd8: 47                         |   i32.ne
 000cd9: 0d 00                      |   br_if 0
 000cdb: 00                         |   unreachable
 000cdc: 0b                         | end
 000cdd: 20 01                      | local.get 1
 000cdf: 29 03 08                   | i64.load 3 8
 000ce2: 21 00                      | local.set 0
 000ce4: 20 01                      | local.get 1
 000ce6: 41 10                      | i32.const 16
 000ce8: 6a                         | i32.add
 000ce9: 24 80 80 80 80 00          | global.set 0
 000cef: 20 00                      | local.get 0
 000cf1: 0b                         | end
000cf3 func[47]:
 000cf4: 01 7f                      | local[2] type=i32
 000cf6: 23 80 80 80 80 00          | global.get 0
 000cfc: 41 10                      | i32.const 16
 000cfe: 6b                         | i32.sub
 000cff: 22 02                      | local.tee 2
 000d01: 24 80 80 80 80 00          | global.set 0
 000d07: 20 02                      | local.get 2
 000d09: 20 01                      | local.get 1
 000d0b: 37 03 08                   | i64.store 3 8
 000d0e: 20 02                      | local.get 2
 000d10: 20 00                      | local.get 0
 000d12: 37 03 00                   | i64.store 3 0
 000d15: 20 02                      | local.get 2
 000d17: 41 02                      | i32.const 2
 000d19: 10 b0 80 80 80 00          | call 48
 000d1f: 21 01                      | local.set 1
 000d21: 20 02                      | local.get 2
 000d23: 41 10                      | i32.const 16
 000d25: 6a                         | i32.add
 000d26: 24 80 80 80 80 00          | global.set 0
 000d2c: 20 01                      | local.get 1
 000d2e: 0b                         | end
000d30 func[48]:
 000d31: 20 00                      | local.get 0
 000d33: ad                         | i64.extend_i32_u
 000d34: 42 20                      | i64.const 32
 000d36: 86                         | i64.shl
 000d37: 42 04                      | i64.const 4
 000d39: 84                         | i64.or
 000d3a: 20 01                      | local.get 1
 000d3c: ad                         | i64.extend_i32_u
 000d3d: 42 20                      | i64.const 32
 000d3f: 86                         | i64.shl
 000d40: 42 04                      | i64.const 4
 000d42: 84                         | i64.or
 000d43: 10 8f 80 80 80 00          | call 15 <v.g>
 000d49: 0b                         | end
000d4b func[49]:
 000d4c: 02 40                      | block
 000d4e: 02 40                      |   block
 000d50: 20 01                      |     local.get 1
 000d52: 42 80 80 80 80 80 80 80 c0 |     i64.const 36028797018963968
 000d5b: 00                         | 
 000d5c: 7c                         |     i64.add
 000d5d: 42 ff ff ff ff ff ff ff ff |     i64.const 72057594037927935
 000d66: 00                         | 
 000d67: 56                         |     i64.gt_u
 000d68: 0d 00                      |     br_if 0
 000d6a: 20 01                      |     local.get 1
 000d6c: 20 01                      |     local.get 1
 000d6e: 85                         |     i64.xor
 000d6f: 20 02                      |     local.get 2
 000d71: 20 01                      |     local.get 1
 000d73: 42 3f                      |     i64.const 63
 000d75: 87                         |     i64.shr_s
 000d76: 85                         |     i64.xor
 000d77: 84                         |     i64.or
 000d78: 42 00                      |     i64.const 0
 000d7a: 52                         |     i64.ne
 000d7b: 0d 00                      |     br_if 0
 000d7d: 20 01                      |     local.get 1
 000d7f: 42 08                      |     i64.const 8
 000d81: 86                         |     i64.shl
 000d82: 42 0b                      |     i64.const 11
 000d84: 84                         |     i64.or
 000d85: 21 01                      |     local.set 1
 000d87: 0c 01                      |     br 1
 000d89: 0b                         |   end
 000d8a: 20 02                      |   local.get 2
 000d8c: 20 01                      |   local.get 1
 000d8e: 10 92 80 80 80 00          |   call 18 <i.6>
 000d94: 21 01                      |   local.set 1
 000d96: 0b                         | end
 000d97: 20 00                      | local.get 0
 000d99: 42 00                      | i64.const 0
 000d9b: 37 03 00                   | i64.store 3 0
 000d9e: 20 00                      | local.get 0
 000da0: 20 01                      | local.get 1
 000da2: 37 03 08                   | i64.store 3 8
 000da5: 0b                         | end
000da8 func[50]:
 000da9: 02 40                      | block
 000dab: 20 00                      |   local.get 0
 000dad: 20 01                      |   local.get 1
 000daf: 41 80 80 c0 80 00          |   i32.const 1048576
 000db5: 41 04                      |   i32.const 4
 000db7: 10 b3 80 80 80 00          |   call 51
 000dbd: 45                         |   i32.eqz
 000dbe: 0d 00                      |   br_if 0
 000dc0: 42 8e f2 ee d9 0b          |   i64.const 3141253390
 000dc6: 0f                         |   return
 000dc7: 0b                         | end
 000dc8: 02 40                      | block
 000dca: 20 00                      |   local.get 0
 000dcc: 20 01                      |   local.get 1
 000dce: 41 84 80 c0 80 00          |   i32.const 1048580
 000dd4: 41 02                      |   i32.const 2
 000dd6: 10 b3 80 80 80 00          |   call 51
 000ddc: 45                         |   i32.eqz
 000ddd: 0d 00                      |   br_if 0
 000ddf: 42 8e d2 2e                |   i64.const 764174
 000de3: 0f                         |   return
 000de4: 0b                         | end
 000de5: 02 40                      | block
 000de7: 20 00                      |   local.get 0
 000de9: 20 01                      |   local.get 1
 000deb: 41 86 80 c0 80 00          |   i32.const 1048582
 000df1: 41 06                      |   i32.const 6
 000df3: 10 b3 80 80 80 00          |   call 51
 000df9: 45                         |   i32.eqz
 000dfa: 0d 00                      |   br_if 0
 000dfc: 42 8e ee aa 9d 8e f7 02    |   i64.const 12888721504014
 000e04: 0f                         |   return
 000e05: 0b                         | end
 000e06: 02 40                      | block
 000e08: 20 00                      |   local.get 0
 000e0a: 20 01                      |   local.get 1
 000e0c: 41 8c 80 c0 80 00          |   i32.const 1048588
 000e12: 41 06                      |   i32.const 6
 000e14: 10 b3 80 80 80 00          |   call 51
 000e1a: 45                         |   i32.eqz
 000e1b: 0d 00                      |   br_if 0
 000e1d: 42 8e d4 b2 bd cc de 03    |   i64.const 16444484790798
 000e25: 0f                         |   return
 000e26: 0b                         | end
 000e27: 02 40                      | block
 000e29: 20 00                      |   local.get 0
 000e2b: 20 01                      |   local.get 1
 000e2d: 41 92 80 c0 80 00          |   i32.const 1048594
 000e33: 41 05                      |   i32.const 5
 000e35: 10 b3 80 80 80 00          |   call 51
 000e3b: 45                         |   i32.eqz
 000e3c: 0d 00                      |   br_if 0
 000e3e: 42 8e e2 e6 9c 9d 07       |   i64.const 248363200782
 000e45: 0f                         |   return
 000e46: 0b                         | end
 000e47: 02 40                      | block
 000e49: 20 00                      |   local.get 0
 000e4b: 20 01                      |   local.get 1
 000e4d: 41 97 80 c0 80 00          |   i32.const 1048599
 000e53: 41 05                      |   i32.const 5
 000e55: 10 b3 80 80 80 00          |   call 51
 000e5b: 45                         |   i32.eqz
 000e5c: 0d 00                      |   br_if 0
 000e5e: 42 8e d2 ae b3 9d 07       |   i64.const 248410515726
 000e65: 0f                         |   return
 000e66: 0b                         | end
 000e67: 02 40                      | block
 000e69: 20 00                      |   local.get 0
 000e6b: 20 01                      |   local.get 1
 000e6d: 41 9c 80 c0 80 00          |   i32.const 1048604
 000e73: 41 05                      |   i32.const 5
 000e75: 10 b3 80 80 80 00          |   call 51
 000e7b: 45                         |   i32.eqz
 000e7c: 0d 00                      |   br_if 0
 000e7e: 42 8e f2 b3 9d 8d 05       |   i64.const 175350020366
 000e85: 0f                         |   return
 000e86: 0b                         | end
 000e87: 02 40                      | block
 000e89: 20 00                      |   local.get 0
 000e8b: 20 01                      |   local.get 1
 000e8d: 41 a1 80 c0 80 00          |   i32.const 1048609
 000e93: 41 05                      |   i32.const 5
 000e95: 10 b3 80 80 80 00          |   call 51
 000e9b: 45                         |   i32.eqz
 000e9c: 0d 00                      |   br_if 0
 000e9e: 42 8e e4 ba 94 ea 04       |   i64.const 165936017934
 000ea5: 0f                         |   return
 000ea6: 0b                         | end
 000ea7: 02 40                      | block
 000ea9: 20 00                      |   local.get 0
 000eab: 20 01                      |   local.get 1
 000ead: 41 a6 80 c0 80 00          |   i32.const 1048614
 000eb3: 41 08                      |   i32.const 8
 000eb5: 10 b3 80 80 80 00          |   call 51
 000ebb: 45                         |   i32.eqz
 000ebc: 0d 00                      |   br_if 0
 000ebe: 42 8e d0 a8 b3 90 bf cb cd |   i64.const 43679168967878670
 000ec7: 00                         | 
 000ec8: 0f                         |   return
 000ec9: 0b                         | end
 000eca: 02 40                      | block
 000ecc: 20 00                      |   local.get 0
 000ece: 20 01                      |   local.get 1
 000ed0: 41 ae 80 c0 80 00          |   i32.const 1048622
 000ed6: 41 07                      |   i32.const 7
 000ed8: 10 b3 80 80 80 00          |   call 51
 000ede: 45                         |   i32.eqz
 000edf: 0d 00                      |   br_if 0
 000ee1: 42 8e d0 a8 b3 a0 d5 ae 01 |   i64.const 768189368248334
 000eea: 0f                         |   return
 000eeb: 0b                         | end
 000eec: 02 40                      | block
 000eee: 20 00                      |   local.get 0
 000ef0: 20 01                      |   local.get 1
 000ef2: 41 b5 80 c0 80 00          |   i32.const 1048629
 000ef8: 41 07                      |   i32.const 7
 000efa: 10 b3 80 80 80 00          |   call 51
 000f00: 45                         |   i32.eqz
 000f01: 0d 00                      |   br_if 0
 000f03: 42 8e d2 f5 c0 aa dd e6 01 |   i64.const 1014757563656462
 000f0c: 0f                         |   return
 000f0d: 0b                         | end
 000f0e: 02 40                      | block
 000f10: 20 00                      |   local.get 0
 000f12: 20 01                      |   local.get 1
 000f14: 41 bc 80 c0 80 00          |   i32.const 1048636
 000f1a: 41 08                      |   i32.const 8
 000f1c: 10 b3 80 80 80 00          |   call 51
 000f22: 45                         |   i32.eqz
 000f23: 0d 00                      |   br_if 0
 000f25: 42 8e d2 f5 a0 fe 96 9b f3 |   i64.const 64858781705398542
 000f2e: 00                         | 
 000f2f: 0f                         |   return
 000f30: 0b                         | end
 000f31: 02 40                      | block
 000f33: 20 00                      |   local.get 0
 000f35: 20 01                      |   local.get 1
 000f37: 41 c4 80 c0 80 00          |   i32.const 1048644
 000f3d: 41 11                      |   i32.const 17
 000f3f: 10 b3 80 80 80 00          |   call 51
 000f45: 45                         |   i32.eqz
 000f46: 0d 00                      |   br_if 0
 000f48: 42 8e d0 c1 bc fd 8e cc dd |   i64.const 3151165655551600654
 000f51: 2b                         | 
 000f52: 0f                         |   return
 000f53: 0b                         | end
 000f54: 02 40                      | block
 000f56: 20 00                      |   local.get 0
 000f58: 20 01                      |   local.get 1
 000f5a: 41 d5 80 c0 80 00          |   i32.const 1048661
 000f60: 41 11                      |   i32.const 17
 000f62: 10 b3 80 80 80 00          |   call 51
 000f68: 45                         |   i32.eqz
 000f69: 0d 00                      |   br_if 0
 000f6b: 42 8e d0 c1 bc fd 8e cc e9 |   i64.const 3662324213258151950
 000f74: 32                         | 
 000f75: 0f                         |   return
 000f76: 0b                         | end
 000f77: 02 40                      | block
 000f79: 20 00                      |   local.get 0
 000f7b: 20 01                      |   local.get 1
 000f7d: 41 e6 80 c0 80 00          |   i32.const 1048678
 000f83: 41 0c                      |   i32.const 12
 000f85: 10 b3 80 80 80 00          |   call 51
 000f8b: 45                         |   i32.eqz
 000f8c: 0d 00                      |   br_if 0
 000f8e: 42 8e fc e6 ba 90 c7 9b e3 |   i64.const 55853236604222990
 000f97: 00                         | 
 000f98: 0f                         |   return
 000f99: 0b                         | end
 000f9a: 02 40                      | block
 000f9c: 20 00                      |   local.get 0
 000f9e: 20 01                      |   local.get 1
 000fa0: 41 f2 80 c0 80 00          |   i32.const 1048690
 000fa6: 41 12                      |   i32.const 18
 000fa8: 10 b3 80 80 80 00          |   call 51
 000fae: 45                         |   i32.eqz
 000faf: 0d 00                      |   br_if 0
 000fb1: 42 8e e0 b3 b7 9c 80 e3 dd |   i64.const 4015957431991201806
 000fba: 37                         | 
 000fbb: 0f                         |   return
 000fbc: 0b                         | end
 000fbd: 02 40                      | block
 000fbf: 20 00                      |   local.get 0
 000fc1: 20 01                      |   local.get 1
 000fc3: 41 84 81 c0 80 00          |   i32.const 1048708
 000fc9: 41 0f                      |   i32.const 15
 000fcb: 10 b3 80 80 80 00          |   call 51
 000fd1: 45                         |   i32.eqz
 000fd2: 0d 00                      |   br_if 0
 000fd4: 42 8e e0 b3 b7 9c 88 c7 e9 |   i64.const 2941726050438934542
 000fdd: 28                         | 
 000fde: 0f                         |   return
 000fdf: 0b                         | end
 000fe0: 02 40                      | block
 000fe2: 20 00                      |   local.get 0
 000fe4: 20 01                      |   local.get 1
 000fe6: 41 93 81 c0 80 00          |   i32.const 1048723
 000fec: 41 0d                      |   i32.const 13
 000fee: 10 b3 80 80 80 00          |   call 51
 000ff4: 45                         |   i32.eqz
 000ff5: 0d 00                      |   br_if 0
 000ff7: 42 8e e0 b3 b7 9c c8 cf e9 |   i64.const 2941763433834278926
 001000: 28                         | 
 001001: 0f                         |   return
 001002: 0b                         | end
 001003: 02 40                      | block
 001005: 20 00                      |   local.get 0
 001007: 20 01                      |   local.get 1
 001009: 41 a0 81 c0 80 00          |   i32.const 1048736
 00100f: 41 12                      |   i32.const 18
 001011: 10 b3 80 80 80 00          |   call 51
 001017: 45                         |   i32.eqz
 001018: 0d 00                      |   br_if 0
 00101a: 42 8e ee e9 d4 99 88 d3 e9 |   i64.const 3878527548746528526
 001023: 35                         | 
 001024: 0f                         |   return
 001025: 0b                         | end
 001026: 02 40                      | block
 001028: 20 00                      |   local.get 0
 00102a: 20 01                      |   local.get 1
 00102c: 41 b2 81 c0 80 00          |   i32.const 1048754
 001032: 41 09                      |   i32.const 9
 001034: 10 b3 80 80 80 00          |   call 51
 00103a: 45                         |   i32.eqz
 00103b: 0d 00                      |   br_if 0
 00103d: 42 8e d4 b2 f3 9c 88 d3 e9 |   i64.const 3878527549615942158
 001046: 35                         | 
 001047: 0f                         |   return
 001048: 0b                         | end
 001049: 02 40                      | block
 00104b: 20 00                      |   local.get 0
 00104d: 20 01                      |   local.get 1
 00104f: 41 bb 81 c0 80 00          |   i32.const 1048763
 001055: 41 14                      |   i32.const 20
 001057: 10 b3 80 80 80 00          |   call 51
 00105d: 45                         |   i32.eqz
 00105e: 0d 00                      |   br_if 0
 001060: 42 8e f2 b3 b4 c0 d5 de d3 |   i64.const 47141200373545230
 001069: 00                         | 
 00106a: 0f                         |   return
 00106b: 0b                         | end
 00106c: 42 8e e6 ea 9a 0d          | i64.const 3545936654
 001072: 42 8e e6 bc fa 8c 9e eb 01 | i64.const 1034575200334606
 00107b: 20 00                      | local.get 0
 00107d: 20 01                      | local.get 1
 00107f: 41 cf 81 c0 80 00          | i32.const 1048783
 001085: 41 04                      | i32.const 4
 001087: 10 b3 80 80 80 00          | call 51
 00108d: 1b                         | select
 00108e: 0b                         | end
001090 func[51]:
 001091: 01 7f                      | local[4] type=i32
 001093: 41 00                      | i32.const 0
 001095: 21 04                      | local.set 4
 001097: 02 40                      | block
 001099: 20 01                      |   local.get 1
 00109b: 20 03                      |   local.get 3
 00109d: 47                         |   i32.ne
 00109e: 0d 00                      |   br_if 0
 0010a0: 20 00                      |   local.get 0
 0010a2: 20 02                      |   local.get 2
 0010a4: 20 01                      |   local.get 1
 0010a6: 10 b9 81 80 80 00          |   call 185
 0010ac: 45                         |   i32.eqz
 0010ad: 21 04                      |   local.set 4
 0010af: 0b                         | end
 0010b0: 20 04                      | local.get 4
 0010b2: 0b                         | end
0010b5 func[52]:
 0010b6: 01 7e                      | local[4] type=i64
 0010b8: 02 40                      | block
 0010ba: 02 40                      |   block
 0010bc: 20 01                      |     local.get 1
 0010be: 20 02                      |     local.get 2
 0010c0: 41 d3 81 c0 80 00          |     i32.const 1048787
 0010c6: 41 09                      |     i32.const 9
 0010c8: 10 b3 80 80 80 00          |     call 51
 0010ce: 45                         |     i32.eqz
 0010cf: 0d 00                      |     br_if 0
 0010d1: 42 8e f2 b2 13             |     i64.const 40679694
 0010d6: 21 04                      |     local.set 4
 0010d8: 0c 01                      |     br 1
 0010da: 0b                         |   end
 0010db: 02 40                      |   block
 0010dd: 20 01                      |     local.get 1
 0010df: 20 02                      |     local.get 2
 0010e1: 41 dc 81 c0 80 00          |     i32.const 1048796
 0010e7: 41 0b                      |     i32.const 11
 0010e9: 10 b3 80 80 80 00          |     call 51
 0010ef: 45                         |     i32.eqz
 0010f0: 0d 00                      |     br_if 0
 0010f2: 42 8e f2 b7 d9 09          |     i64.const 2603481358
 0010f8: 21 04                      |     local.set 4
 0010fa: 0c 01                      |     br 1
 0010fc: 0b                         |   end
 0010fd: 02 40                      |   block
 0010ff: 20 01                      |     local.get 1
 001101: 20 02                      |     local.get 2
 001103: 41 e7 81 c0 80 00          |     i32.const 1048807
 001109: 41 09                      |     i32.const 9
 00110b: 10 b3 80 80 80 00          |     call 51
 001111: 45                         |     i32.eqz
 001112: 0d 00                      |     br_if 0
 001114: 42 8e d4 ea 15             |     i64.const 45787662
 001119: 21 04                      |     local.set 4
 00111b: 0c 01                      |     br 1
 00111d: 0b                         |   end
 00111e: 02 40                      |   block
 001120: 20 01                      |     local.get 1
 001122: 20 02                      |     local.get 2
 001124: 41 f0 81 c0 80 00          |     i32.const 1048816
 00112a: 41 0a                      |     i32.const 10
 00112c: 10 b3 80 80 80 00          |     call 51
 001132: 45                         |     i32.eqz
 001133: 0d 00                      |     br_if 0
 001135: 42 8e d4 ea 95 0e          |     i64.const 3803884046
 00113b: 21 04                      |     local.set 4
 00113d: 0c 01                      |     br 1
 00113f: 0b                         |   end
 001140: 02 40                      |   block
 001142: 20 01                      |     local.get 1
 001144: 20 02                      |     local.get 2
 001146: 41 fa 81 c0 80 00          |     i32.const 1048826
 00114c: 41 09                      |     i32.const 9
 00114e: 10 b3 80 80 80 00          |     call 51
 001154: 45                         |     i32.eqz
 001155: 0d 00                      |     br_if 0
 001157: 42 8e d4 fa 14             |     i64.const 43952654
 00115c: 21 04                      |     local.set 4
 00115e: 0c 01                      |     br 1
 001160: 0b                         |   end
 001161: 02 40                      |   block
 001163: 20 01                      |     local.get 1
 001165: 20 02                      |     local.get 2
 001167: 41 83 82 c0 80 00          |     i32.const 1048835
 00116d: 41 0a                      |     i32.const 10
 00116f: 10 b3 80 80 80 00          |     call 51
 001175: 45                         |     i32.eqz
 001176: 0d 00                      |     br_if 0
 001178: 42 8e d2 ae b3 0d          |     i64.const 3597379854
 00117e: 21 04                      |     local.set 4
 001180: 0c 01                      |     br 1
 001182: 0b                         |   end
 001183: 02 40                      |   block
 001185: 20 01                      |     local.get 1
 001187: 20 02                      |     local.get 2
 001189: 41 8d 82 c0 80 00          |     i32.const 1048845
 00118f: 41 0b                      |     i32.const 11
 001191: 10 b3 80 80 80 00          |     call 51
 001197: 45                         |     i32.eqz
 001198: 0d 00                      |     br_if 0
 00119a: 42 8e f2 e9 1a             |     i64.const 56260878
 00119f: 21 04                      |     local.set 4
 0011a1: 0c 01                      |     br 1
 0011a3: 0b                         |   end
 0011a4: 02 40                      |   block
 0011a6: 20 01                      |     local.get 1
 0011a8: 20 02                      |     local.get 2
 0011aa: 41 98 82 c0 80 00          |     i32.const 1048856
 0011b0: 41 0b                      |     i32.const 11
 0011b2: 10 b3 80 80 80 00          |     call 51
 0011b8: 45                         |     i32.eqz
 0011b9: 0d 00                      |     br_if 0
 0011bb: 42 8e d2 f5 1c             |     i64.const 60647694
 0011c0: 21 04                      |     local.set 4
 0011c2: 0c 01                      |     br 1
 0011c4: 0b                         |   end
 0011c5: 42 8e d8 ea bb 0a          |   i64.const 2809834510
 0011cb: 42 8e e6 bc fa 8c 9e eb 01 |   i64.const 1034575200334606
 0011d4: 20 01                      |   local.get 1
 0011d6: 20 02                      |   local.get 2
 0011d8: 41 a3 82 c0 80 00          |   i32.const 1048867
 0011de: 41 0e                      |   i32.const 14
 0011e0: 10 b3 80 80 80 00          |   call 51
 0011e6: 1b                         |   select
 0011e7: 21 04                      |   local.set 4
 0011e9: 0b                         | end
 0011ea: 20 00                      | local.get 0
 0011ec: 20 03                      | local.get 3
 0011ee: 37 03 08                   | i64.store 3 8
 0011f1: 20 00                      | local.get 0
 0011f3: 20 04                      | local.get 4
 0011f5: 37 03 00                   | i64.store 3 0
 0011f8: 0b                         | end
0011fb func[53]:
 0011fc: 01 7f                      | local[2] type=i32
 0011fe: 41 01                      | i32.const 1
 001200: 21 02                      | local.set 2
 001202: 02 40                      | block
 001204: 20 00                      |   local.get 0
 001206: 20 01                      |   local.get 1
 001208: 41 80 80 c0 80 00          |   i32.const 1048576
 00120e: 41 04                      |   i32.const 4
 001210: 10 b3 80 80 80 00          |   call 51
 001216: 0d 00                      |   br_if 0
 001218: 20 00                      |   local.get 0
 00121a: 20 01                      |   local.get 1
 00121c: 41 84 80 c0 80 00          |   i32.const 1048580
 001222: 41 02                      |   i32.const 2
 001224: 10 b3 80 80 80 00          |   call 51
 00122a: 0d 00                      |   br_if 0
 00122c: 20 00                      |   local.get 0
 00122e: 20 01                      |   local.get 1
 001230: 41 86 80 c0 80 00          |   i32.const 1048582
 001236: 41 06                      |   i32.const 6
 001238: 10 b3 80 80 80 00          |   call 51
 00123e: 0d 00                      |   br_if 0
 001240: 20 00                      |   local.get 0
 001242: 20 01                      |   local.get 1
 001244: 41 8c 80 c0 80 00          |   i32.const 1048588
 00124a: 41 06                      |   i32.const 6
 00124c: 10 b3 80 80 80 00          |   call 51
 001252: 0d 00                      |   br_if 0
 001254: 20 00                      |   local.get 0
 001256: 20 01                      |   local.get 1
 001258: 41 92 80 c0 80 00          |   i32.const 1048594
 00125e: 41 05                      |   i32.const 5
 001260: 10 b3 80 80 80 00          |   call 51
 001266: 0d 00                      |   br_if 0
 001268: 20 00                      |   local.get 0
 00126a: 20 01                      |   local.get 1
 00126c: 41 97 80 c0 80 00          |   i32.const 1048599
 001272: 41 05                      |   i32.const 5
 001274: 10 b3 80 80 80 00          |   call 51
 00127a: 0d 00                      |   br_if 0
 00127c: 20 00                      |   local.get 0
 00127e: 20 01                      |   local.get 1
 001280: 41 9c 80 c0 80 00          |   i32.const 1048604
 001286: 41 05                      |   i32.const 5
 001288: 10 b3 80 80 80 00          |   call 51
 00128e: 0d 00                      |   br_if 0
 001290: 20 00                      |   local.get 0
 001292: 20 01                      |   local.get 1
 001294: 41 a1 80 c0 80 00          |   i32.const 1048609
 00129a: 41 05                      |   i32.const 5
 00129c: 10 b3 80 80 80 00          |   call 51
 0012a2: 0d 00                      |   br_if 0
 0012a4: 20 00                      |   local.get 0
 0012a6: 20 01                      |   local.get 1
 0012a8: 41 a6 80 c0 80 00          |   i32.const 1048614
 0012ae: 41 08                      |   i32.const 8
 0012b0: 10 b3 80 80 80 00          |   call 51
 0012b6: 0d 00                      |   br_if 0
 0012b8: 20 00                      |   local.get 0
 0012ba: 20 01                      |   local.get 1
 0012bc: 41 ae 80 c0 80 00          |   i32.const 1048622
 0012c2: 41 07                      |   i32.const 7
 0012c4: 10 b3 80 80 80 00          |   call 51
 0012ca: 0d 00                      |   br_if 0
 0012cc: 20 00                      |   local.get 0
 0012ce: 20 01                      |   local.get 1
 0012d0: 41 b5 80 c0 80 00          |   i32.const 1048629
 0012d6: 41 07                      |   i32.const 7
 0012d8: 10 b3 80 80 80 00          |   call 51
 0012de: 0d 00                      |   br_if 0
 0012e0: 20 00                      |   local.get 0
 0012e2: 20 01                      |   local.get 1
 0012e4: 41 bc 80 c0 80 00          |   i32.const 1048636
 0012ea: 41 08                      |   i32.const 8
 0012ec: 10 b3 80 80 80 00          |   call 51
 0012f2: 0d 00                      |   br_if 0
 0012f4: 20 00                      |   local.get 0
 0012f6: 20 01                      |   local.get 1
 0012f8: 41 c4 80 c0 80 00          |   i32.const 1048644
 0012fe: 41 11                      |   i32.const 17
 001300: 10 b3 80 80 80 00          |   call 51
 001306: 0d 00                      |   br_if 0
 001308: 20 00                      |   local.get 0
 00130a: 20 01                      |   local.get 1
 00130c: 41 d5 80 c0 80 00          |   i32.const 1048661
 001312: 41 11                      |   i32.const 17
 001314: 10 b3 80 80 80 00          |   call 51
 00131a: 0d 00                      |   br_if 0
 00131c: 20 00                      |   local.get 0
 00131e: 20 01                      |   local.get 1
 001320: 41 b1 82 c0 80 00          |   i32.const 1048881
 001326: 41 09                      |   i32.const 9
 001328: 10 b3 80 80 80 00          |   call 51
 00132e: 0d 00                      |   br_if 0
 001330: 20 00                      |   local.get 0
 001332: 20 01                      |   local.get 1
 001334: 41 ba 82 c0 80 00          |   i32.const 1048890
 00133a: 41 09                      |   i32.const 9
 00133c: 10 b3 80 80 80 00          |   call 51
 001342: 0d 00                      |   br_if 0
 001344: 20 00                      |   local.get 0
 001346: 20 01                      |   local.get 1
 001348: 41 c3 82 c0 80 00          |   i32.const 1048899
 00134e: 41 09                      |   i32.const 9
 001350: 10 b3 80 80 80 00          |   call 51
 001356: 0d 00                      |   br_if 0
 001358: 20 00                      |   local.get 0
 00135a: 20 01                      |   local.get 1
 00135c: 41 cc 82 c0 80 00          |   i32.const 1048908
 001362: 41 09                      |   i32.const 9
 001364: 10 b3 80 80 80 00          |   call 51
 00136a: 0d 00                      |   br_if 0
 00136c: 20 00                      |   local.get 0
 00136e: 20 01                      |   local.get 1
 001370: 41 b2 81 c0 80 00          |   i32.const 1048754
 001376: 41 09                      |   i32.const 9
 001378: 10 b3 80 80 80 00          |   call 51
 00137e: 0d 00                      |   br_if 0
 001380: 20 00                      |   local.get 0
 001382: 20 01                      |   local.get 1
 001384: 41 d5 82 c0 80 00          |   i32.const 1048917
 00138a: 41 08                      |   i32.const 8
 00138c: 10 b3 80 80 80 00          |   call 51
 001392: 0d 00                      |   br_if 0
 001394: 20 00                      |   local.get 0
 001396: 20 01                      |   local.get 1
 001398: 41 cf 81 c0 80 00          |   i32.const 1048783
 00139e: 41 04                      |   i32.const 4
 0013a0: 10 b3 80 80 80 00          |   call 51
 0013a6: 0d 00                      |   br_if 0
 0013a8: 20 00                      |   local.get 0
 0013aa: 20 01                      |   local.get 1
 0013ac: 41 dd 82 c0 80 00          |   i32.const 1048925
 0013b2: 41 08                      |   i32.const 8
 0013b4: 10 b3 80 80 80 00          |   call 51
 0013ba: 21 02                      |   local.set 2
 0013bc: 0b                         | end
 0013bd: 20 02                      | local.get 2
 0013bf: 0b                         | end
0013c2 func[54]:
 0013c3: 41 92 80 c0 80 00          | i32.const 1048594
 0013c9: 41 05                      | i32.const 5
 0013cb: 10 b2 80 80 80 00          | call 50
 0013d1: 42 00                      | i64.const 0
 0013d3: 42 00                      | i64.const 0
 0013d5: 10 ac 80 80 80 00          | call 44
 0013db: 41 97 80 c0 80 00          | i32.const 1048599
 0013e1: 41 05                      | i32.const 5
 0013e3: 10 b2 80 80 80 00          | call 50
 0013e9: 42 00                      | i64.const 0
 0013eb: 42 00                      | i64.const 0
 0013ed: 10 ac 80 80 80 00          | call 44
 0013f3: 41 9c 80 c0 80 00          | i32.const 1048604
 0013f9: 41 05                      | i32.const 5
 0013fb: 10 b2 80 80 80 00          | call 50
 001401: 42 00                      | i64.const 0
 001403: 42 00                      | i64.const 0
 001405: 10 ac 80 80 80 00          | call 44
 00140b: 41 a1 80 c0 80 00          | i32.const 1048609
 001411: 41 05                      | i32.const 5
 001413: 10 b2 80 80 80 00          | call 50
 001419: 42 00                      | i64.const 0
 00141b: 42 00                      | i64.const 0
 00141d: 10 ac 80 80 80 00          | call 44
 001423: 41 a6 80 c0 80 00          | i32.const 1048614
 001429: 41 08                      | i32.const 8
 00142b: 10 b2 80 80 80 00          | call 50
 001431: 42 00                      | i64.const 0
 001433: 42 00                      | i64.const 0
 001435: 10 ac 80 80 80 00          | call 44
 00143b: 41 ae 80 c0 80 00          | i32.const 1048622
 001441: 41 07                      | i32.const 7
 001443: 10 b2 80 80 80 00          | call 50
 001449: 42 00                      | i64.const 0
 00144b: 42 00                      | i64.const 0
 00144d: 10 ac 80 80 80 00          | call 44
 001453: 41 b5 80 c0 80 00          | i32.const 1048629
 001459: 41 07                      | i32.const 7
 00145b: 10 b2 80 80 80 00          | call 50
 001461: 42 00                      | i64.const 0
 001463: 42 00                      | i64.const 0
 001465: 10 ac 80 80 80 00          | call 44
 00146b: 41 bc 80 c0 80 00          | i32.const 1048636
 001471: 41 08                      | i32.const 8
 001473: 10 b2 80 80 80 00          | call 50
 001479: 42 00                      | i64.const 0
 00147b: 42 00                      | i64.const 0
 00147d: 10 ac 80 80 80 00          | call 44
 001483: 41 c4 80 c0 80 00          | i32.const 1048644
 001489: 41 11                      | i32.const 17
 00148b: 10 b2 80 80 80 00          | call 50
 001491: 42 00                      | i64.const 0
 001493: 42 00                      | i64.const 0
 001495: 10 ac 80 80 80 00          | call 44
 00149b: 41 d5 80 c0 80 00          | i32.const 1048661
 0014a1: 41 11                      | i32.const 17
 0014a3: 10 b2 80 80 80 00          | call 50
 0014a9: 42 00                      | i64.const 0
 0014ab: 42 00                      | i64.const 0
 0014ad: 10 ac 80 80 80 00          | call 44
 0014b3: 0b                         | end
0014b6 func[55]:
 0014b7: 02 7f                      | local[3..4] type=i32
 0014b9: 03 7e                      | local[5..7] type=i64
 0014bb: 23 80 80 80 80 00          | global.get 0
 0014c1: 41 20                      | i32.const 32
 0014c3: 6b                         | i32.sub
 0014c4: 22 03                      | local.tee 3
 0014c6: 24 80 80 80 80 00          | global.set 0
 0014cc: 20 01                      | local.get 1
 0014ce: 20 02                      | local.get 2
 0014d0: 10 b5 80 80 80 00          | call 53
 0014d6: 21 04                      | local.set 4
 0014d8: 20 01                      | local.get 1
 0014da: 20 02                      | local.get 2
 0014dc: 10 b2 80 80 80 00          | call 50
 0014e2: 21 05                      | local.set 5
 0014e4: 02 40                      | block
 0014e6: 02 40                      |   block
 0014e8: 02 40                      |     block
 0014ea: 20 04                      |       local.get 4
 0014ec: 0d 00                      |       br_if 0
 0014ee: 20 03                      |       local.get 3
 0014f0: 20 05                      |       local.get 5
 0014f2: 10 9e 80 80 80 00          |       call 30
 0014f8: 20 03                      |       local.get 3
 0014fa: 29 03 18                   |       i64.load 3 24
 0014fd: 42 00                      |       i64.const 0
 0014ff: 20 03                      |       local.get 3
 001501: 28 02 00                   |       i32.load 2 0
 001504: 41 01                      |       i32.const 1
 001506: 71                         |       i32.and
 001507: 22 02                      |       local.tee 2
 001509: 1b                         |       select
 00150a: 21 06                      |       local.set 6
 00150c: 20 03                      |       local.get 3
 00150e: 29 03 10                   |       i64.load 3 16
 001511: 42 00                      |       i64.const 0
 001513: 20 02                      |       local.get 2
 001515: 1b                         |       select
 001516: 21 07                      |       local.set 7
 001518: 0c 01                      |       br 1
 00151a: 0b                         |     end
 00151b: 42 00                      |     i64.const 0
 00151d: 21 07                      |     local.set 7
 00151f: 42 00                      |     i64.const 0
 001521: 21 06                      |     local.set 6
 001523: 20 05                      |     local.get 5
 001525: 42 02                      |     i64.const 2
 001527: 10 9d 80 80 80 00          |     call 29
 00152d: 45                         |     i32.eqz
 00152e: 0d 00                      |     br_if 0
 001530: 20 03                      |     local.get 3
 001532: 20 05                      |     local.get 5
 001534: 42 02                      |     i64.const 2
 001536: 10 82 80 80 80 00          |     call 2 <l.1>
 00153c: 10 9f 80 80 80 00          |     call 31
 001542: 20 03                      |     local.get 3
 001544: 28 02 00                   |     i32.load 2 0
 001547: 41 01                      |     i32.const 1
 001549: 46                         |     i32.eq
 00154a: 0d 01                      |     br_if 1
 00154c: 20 03                      |     local.get 3
 00154e: 29 03 18                   |     i64.load 3 24
 001551: 21 06                      |     local.set 6
 001553: 20 03                      |     local.get 3
 001555: 29 03 10                   |     i64.load 3 16
 001558: 21 07                      |     local.set 7
 00155a: 0b                         |   end
 00155b: 20 00                      |   local.get 0
 00155d: 20 07                      |   local.get 7
 00155f: 37 03 00                   |   i64.store 3 0
 001562: 20 00                      |   local.get 0
 001564: 20 06                      |   local.get 6
 001566: 37 03 08                   |   i64.store 3 8
 001569: 20 03                      |   local.get 3
 00156b: 41 20                      |   i32.const 32
 00156d: 6a                         |   i32.add
 00156e: 24 80 80 80 80 00          |   global.set 0
 001574: 0f                         |   return
 001575: 0b                         | end
 001576: 00                         | unreachable
 001577: 0b                         | end
001579 func[56]:
 00157a: 01 7f                      | local[4] type=i32
 00157c: 01 7e                      | local[5] type=i64
 00157e: 20 00                      | local.get 0
 001580: 20 01                      | local.get 1
 001582: 10 b5 80 80 80 00          | call 53
 001588: 21 04                      | local.set 4
 00158a: 20 00                      | local.get 0
 00158c: 20 01                      | local.get 1
 00158e: 10 b2 80 80 80 00          | call 50
 001594: 21 05                      | local.set 5
 001596: 02 40                      | block
 001598: 20 04                      |   local.get 4
 00159a: 0d 00                      |   br_if 0
 00159c: 20 05                      |   local.get 5
 00159e: 20 02                      |   local.get 2
 0015a0: 20 03                      |   local.get 3
 0015a2: 10 a4 80 80 80 00          |   call 36
 0015a8: 0f                         |   return
 0015a9: 0b                         | end
 0015aa: 20 05                      | local.get 5
 0015ac: 20 02                      | local.get 2
 0015ae: 20 03                      | local.get 3
 0015b0: 10 ac 80 80 80 00          | call 44
 0015b6: 0b                         | end
0015b8 func[57]:
 0015b9: 01 7f                      | local[3] type=i32
 0015bb: 02 7e                      | local[4..5] type=i64
 0015bd: 20 01                      | local.get 1
 0015bf: 20 02                      | local.get 2
 0015c1: 10 b5 80 80 80 00          | call 53
 0015c7: 21 03                      | local.set 3
 0015c9: 20 01                      | local.get 1
 0015cb: 20 02                      | local.get 2
 0015cd: 10 b2 80 80 80 00          | call 50
 0015d3: 21 04                      | local.set 4
 0015d5: 02 40                      | block
 0015d7: 20 03                      |   local.get 3
 0015d9: 0d 00                      |   br_if 0
 0015db: 20 00                      |   local.get 0
 0015dd: 20 04                      |   local.get 4
 0015df: 10 9c 80 80 80 00          |   call 28
 0015e5: 0f                         |   return
 0015e6: 0b                         | end
 0015e7: 42 00                      | i64.const 0
 0015e9: 21 05                      | local.set 5
 0015eb: 02 40                      | block
 0015ed: 02 40                      |   block
 0015ef: 20 04                      |     local.get 4
 0015f1: 42 02                      |     i64.const 2
 0015f3: 10 9d 80 80 80 00          |     call 29
 0015f9: 45                         |     i32.eqz
 0015fa: 0d 00                      |     br_if 0
 0015fc: 02 40                      |     block
 0015fe: 20 04                      |       local.get 4
 001600: 42 02                      |       i64.const 2
 001602: 10 82 80 80 80 00          |       call 2 <l.1>
 001608: 22 04                      |       local.tee 4
 00160a: a7                         |       i32.wrap_i64
 00160b: 41 ff 01                   |       i32.const 255
 00160e: 71                         |       i32.and
 00160f: 22 02                      |       local.tee 2
 001611: 41 0e                      |       i32.const 14
 001613: 46                         |       i32.eq
 001614: 0d 00                      |       br_if 0
 001616: 20 02                      |       local.get 2
 001618: 41 ca 00                   |       i32.const 74
 00161b: 47                         |       i32.ne
 00161c: 0d 02                      |       br_if 2
 00161e: 0b                         |     end
 00161f: 20 00                      |     local.get 0
 001621: 20 04                      |     local.get 4
 001623: 37 03 08                   |     i64.store 3 8
 001626: 42 01                      |     i64.const 1
 001628: 21 05                      |     local.set 5
 00162a: 0b                         |   end
 00162b: 20 00                      |   local.get 0
 00162d: 20 05                      |   local.get 5
 00162f: 37 03 00                   |   i64.store 3 0
 001632: 0f                         |   return
 001633: 0b                         | end
 001634: 00                         | unreachable
 001635: 0b                         | end
001638 func[58]:
 001639: 01 7f                      | local[4] type=i32
 00163b: 02 7e                      | local[5..6] type=i64
 00163d: 23 80 80 80 80 00          | global.get 0
 001643: 41 30                      | i32.const 48
 001645: 6b                         | i32.sub
 001646: 22 04                      | local.tee 4
 001648: 24 80 80 80 80 00          | global.set 0
 00164e: 20 04                      | local.get 4
 001650: 20 01                      | local.get 1
 001652: 20 02                      | local.get 2
 001654: 20 03                      | local.get 3
 001656: 10 b4 80 80 80 00          | call 52
 00165c: 42 00                      | i64.const 0
 00165e: 21 03                      | local.set 3
 001660: 42 00                      | i64.const 0
 001662: 21 05                      | local.set 5
 001664: 02 40                      | block
 001666: 02 40                      |   block
 001668: 20 04                      |     local.get 4
 00166a: 29 03 00                   |     i64.load 3 0
 00166d: 20 04                      |     local.get 4
 00166f: 29 03 08                   |     i64.load 3 8
 001672: 10 af 80 80 80 00          |     call 47
 001678: 22 06                      |     local.tee 6
 00167a: 42 01                      |     i64.const 1
 00167c: 10 9d 80 80 80 00          |     call 29
 001682: 45                         |     i32.eqz
 001683: 0d 00                      |     br_if 0
 001685: 20 04                      |     local.get 4
 001687: 41 10                      |     i32.const 16
 001689: 6a                         |     i32.add
 00168a: 20 06                      |     local.get 6
 00168c: 42 01                      |     i64.const 1
 00168e: 10 82 80 80 80 00          |     call 2 <l.1>
 001694: 10 9f 80 80 80 00          |     call 31
 00169a: 20 04                      |     local.get 4
 00169c: 28 02 10                   |     i32.load 2 16
 00169f: 41 01                      |     i32.const 1
 0016a1: 46                         |     i32.eq
 0016a2: 0d 01                      |     br_if 1
 0016a4: 20 04                      |     local.get 4
 0016a6: 29 03 28                   |     i64.load 3 40
 0016a9: 21 05                      |     local.set 5
 0016ab: 20 04                      |     local.get 4
 0016ad: 29 03 20                   |     i64.load 3 32
 0016b0: 21 03                      |     local.set 3
 0016b2: 0b                         |   end
 0016b3: 20 00                      |   local.get 0
 0016b5: 20 03                      |   local.get 3
 0016b7: 37 03 00                   |   i64.store 3 0
 0016ba: 20 00                      |   local.get 0
 0016bc: 20 05                      |   local.get 5
 0016be: 37 03 08                   |   i64.store 3 8
 0016c1: 20 04                      |   local.get 4
 0016c3: 41 30                      |   i32.const 48
 0016c5: 6a                         |   i32.add
 0016c6: 24 80 80 80 80 00          |   global.set 0
 0016cc: 0f                         |   return
 0016cd: 0b                         | end
 0016ce: 00                         | unreachable
 0016cf: 0b                         | end
0016d1 func[59]:
 0016d2: 01 7f                      | local[5] type=i32
 0016d4: 23 80 80 80 80 00          | global.get 0
 0016da: 41 10                      | i32.const 16
 0016dc: 6b                         | i32.sub
 0016dd: 22 05                      | local.tee 5
 0016df: 24 80 80 80 80 00          | global.set 0
 0016e5: 20 05                      | local.get 5
 0016e7: 20 00                      | local.get 0
 0016e9: 20 01                      | local.get 1
 0016eb: 20 02                      | local.get 2
 0016ed: 10 b4 80 80 80 00          | call 52
 0016f3: 20 05                      | local.get 5
 0016f5: 29 03 00                   | i64.load 3 0
 0016f8: 20 05                      | local.get 5
 0016fa: 29 03 08                   | i64.load 3 8
 0016fd: 10 af 80 80 80 00          | call 47
 001703: 20 03                      | local.get 3
 001705: 20 04                      | local.get 4
 001707: 10 a7 80 80 80 00          | call 39
 00170d: 42 01                      | i64.const 1
 00170f: 10 83 80 80 80 00          | call 3 <l._>
 001715: 1a                         | drop
 001716: 20 05                      | local.get 5
 001718: 41 10                      | i32.const 16
 00171a: 6a                         | i32.add
 00171b: 24 80 80 80 80 00          | global.set 0
 001721: 0b                         | end
001724 func[60]:
 001725: 01 7f                      | local[3] type=i32
 001727: 01 7e                      | local[4] type=i64
 001729: 23 80 80 80 80 00          | global.get 0
 00172f: 41 20                      | i32.const 32
 001731: 6b                         | i32.sub
 001732: 22 03                      | local.tee 3
 001734: 24 80 80 80 80 00          | global.set 0
 00173a: 20 03                      | local.get 3
 00173c: 20 00                      | local.get 0
 00173e: 20 01                      | local.get 1
 001740: 20 02                      | local.get 2
 001742: 10 b4 80 80 80 00          | call 52
 001748: 42 00                      | i64.const 0
 00174a: 21 02                      | local.set 2
 00174c: 02 40                      | block
 00174e: 02 40                      |   block
 001750: 20 03                      |     local.get 3
 001752: 29 03 00                   |     i64.load 3 0
 001755: 20 03                      |     local.get 3
 001757: 29 03 08                   |     i64.load 3 8
 00175a: 10 af 80 80 80 00          |     call 47
 001760: 22 04                      |     local.tee 4
 001762: 42 01                      |     i64.const 1
 001764: 10 9d 80 80 80 00          |     call 29
 00176a: 45                         |     i32.eqz
 00176b: 0d 00                      |     br_if 0
 00176d: 20 03                      |     local.get 3
 00176f: 41 10                      |     i32.const 16
 001771: 6a                         |     i32.add
 001772: 20 04                      |     local.get 4
 001774: 42 01                      |     i64.const 1
 001776: 10 82 80 80 80 00          |     call 2 <l.1>
 00177c: 10 9b 80 80 80 00          |     call 27
 001782: 20 03                      |     local.get 3
 001784: 28 02 10                   |     i32.load 2 16
 001787: 41 01                      |     i32.const 1
 001789: 46                         |     i32.eq
 00178a: 0d 01                      |     br_if 1
 00178c: 20 03                      |     local.get 3
 00178e: 29 03 18                   |     i64.load 3 24
 001791: 21 02                      |     local.set 2
 001793: 0b                         |   end
 001794: 20 03                      |   local.get 3
 001796: 41 20                      |   i32.const 32
 001798: 6a                         |   i32.add
 001799: 24 80 80 80 80 00          |   global.set 0
 00179f: 20 02                      |   local.get 2
 0017a1: 0f                         |   return
 0017a2: 0b                         | end
 0017a3: 00                         | unreachable
 0017a4: 0b                         | end
0017a6 func[61]:
 0017a7: 01 7f                      | local[4] type=i32
 0017a9: 23 80 80 80 80 00          | global.get 0
 0017af: 41 10                      | i32.const 16
 0017b1: 6b                         | i32.sub
 0017b2: 22 04                      | local.tee 4
 0017b4: 24 80 80 80 80 00          | global.set 0
 0017ba: 20 04                      | local.get 4
 0017bc: 20 00                      | local.get 0
 0017be: 20 01                      | local.get 1
 0017c0: 20 02                      | local.get 2
 0017c2: 10 b4 80 80 80 00          | call 52
 0017c8: 20 04                      | local.get 4
 0017ca: 29 03 00                   | i64.load 3 0
 0017cd: 20 04                      | local.get 4
 0017cf: 29 03 08                   | i64.load 3 8
 0017d2: 10 af 80 80 80 00          | call 47
 0017d8: 20 03                      | local.get 3
 0017da: 10 ae 80 80 80 00          | call 46
 0017e0: 42 01                      | i64.const 1
 0017e2: 10 83 80 80 80 00          | call 3 <l._>
 0017e8: 1a                         | drop
 0017e9: 20 04                      | local.get 4
 0017eb: 41 10                      | i32.const 16
 0017ed: 6a                         | i32.add
 0017ee: 24 80 80 80 80 00          | global.set 0
 0017f4: 0b                         | end
0017f6 func[62]:
 0017f7: 02 7f                      | local[1..2] type=i32
 0017f9: 23 80 80 80 80 00          | global.get 0
 0017ff: 41 10                      | i32.const 16
 001801: 6b                         | i32.sub
 001802: 22 01                      | local.tee 1
 001804: 24 80 80 80 80 00          | global.set 0
 00180a: 20 01                      | local.get 1
 00180c: 41 83 82 c0 80 00          | i32.const 1048835
 001812: 41 0a                      | i32.const 10
 001814: 20 00                      | local.get 0
 001816: 10 b4 80 80 80 00          | call 52
 00181c: 41 00                      | i32.const 0
 00181e: 21 02                      | local.set 2
 001820: 02 40                      | block
 001822: 20 01                      |   local.get 1
 001824: 29 03 00                   |   i64.load 3 0
 001827: 20 01                      |   local.get 1
 001829: 29 03 08                   |   i64.load 3 8
 00182c: 10 af 80 80 80 00          |   call 47
 001832: 22 00                      |   local.tee 0
 001834: 42 01                      |   i64.const 1
 001836: 10 9d 80 80 80 00          |   call 29
 00183c: 45                         |   i32.eqz
 00183d: 0d 00                      |   br_if 0
 00183f: 41 01                      |   i32.const 1
 001841: 21 02                      |   local.set 2
 001843: 02 40                      |   block
 001845: 02 40                      |     block
 001847: 20 00                      |       local.get 0
 001849: 42 01                      |       i64.const 1
 00184b: 10 82 80 80 80 00          |       call 2 <l.1>
 001851: a7                         |       i32.wrap_i64
 001852: 41 ff 01                   |       i32.const 255
 001855: 71                         |       i32.and
 001856: 0e 02 01 02 00             |       br_table 1 2 0
 00185b: 0b                         |     end
 00185c: 00                         |     unreachable
 00185d: 0b                         |   end
 00185e: 41 00                      |   i32.const 0
 001860: 21 02                      |   local.set 2
 001862: 0b                         | end
 001863: 20 01                      | local.get 1
 001865: 41 10                      | i32.const 16
 001867: 6a                         | i32.add
 001868: 24 80 80 80 80 00          | global.set 0
 00186e: 20 02                      | local.get 2
 001870: 0b                         | end
001872 func[63]:
 001873: 01 7f                      | local[2] type=i32
 001875: 23 80 80 80 80 00          | global.get 0
 00187b: 41 10                      | i32.const 16
 00187d: 6b                         | i32.sub
 00187e: 22 02                      | local.tee 2
 001880: 24 80 80 80 80 00          | global.set 0
 001886: 20 02                      | local.get 2
 001888: 41 83 82 c0 80 00          | i32.const 1048835
 00188e: 41 0a                      | i32.const 10
 001890: 20 00                      | local.get 0
 001892: 10 b4 80 80 80 00          | call 52
 001898: 20 02                      | local.get 2
 00189a: 29 03 00                   | i64.load 3 0
 00189d: 20 02                      | local.get 2
 00189f: 29 03 08                   | i64.load 3 8
 0018a2: 10 af 80 80 80 00          | call 47
 0018a8: 20 01                      | local.get 1
 0018aa: ad                         | i64.extend_i32_u
 0018ab: 42 01                      | i64.const 1
 0018ad: 10 83 80 80 80 00          | call 3 <l._>
 0018b3: 1a                         | drop
 0018b4: 20 02                      | local.get 2
 0018b6: 41 10                      | i32.const 16
 0018b8: 6a                         | i32.add
 0018b9: 24 80 80 80 80 00          | global.set 0
 0018bf: 0b                         | end
0018c2 func[64]:
 0018c3: 01 7f                      | local[8] type=i32
 0018c5: 41 00                      | i32.const 0
 0018c7: 21 08                      | local.set 8
 0018c9: 02 40                      | block
 0018cb: 02 40                      |   block
 0018cd: 20 00                      |     local.get 0
 0018cf: 50                         |     i64.eqz
 0018d0: 20 01                      |     local.get 1
 0018d2: 42 00                      |     i64.const 0
 0018d4: 53                         |     i64.lt_s
 0018d5: 20 01                      |     local.get 1
 0018d7: 50                         |     i64.eqz
 0018d8: 1b                         |     select
 0018d9: 0d 00                      |     br_if 0
 0018db: 20 05                      |     local.get 5
 0018dd: 20 03                      |     local.get 3
 0018df: 84                         |     i64.or
 0018e0: 20 07                      |     local.get 7
 0018e2: 84                         |     i64.or
 0018e3: 42 00                      |     i64.const 0
 0018e5: 53                         |     i64.lt_s
 0018e6: 0d 00                      |     br_if 0
 0018e8: 20 03                      |     local.get 3
 0018ea: 20 05                      |     local.get 5
 0018ec: 85                         |     i64.xor
 0018ed: 42 7f                      |     i64.const 18446744073709551615
 0018ef: 85                         |     i64.xor
 0018f0: 20 03                      |     local.get 3
 0018f2: 20 03                      |     local.get 3
 0018f4: 20 05                      |     local.get 5
 0018f6: 7c                         |     i64.add
 0018f7: 20 02                      |     local.get 2
 0018f9: 20 04                      |     local.get 4
 0018fb: 7c                         |     i64.add
 0018fc: 22 04                      |     local.tee 4
 0018fe: 20 02                      |     local.get 2
 001900: 54                         |     i64.lt_u
 001901: ad                         |     i64.extend_i32_u
 001902: 7c                         |     i64.add
 001903: 22 05                      |     local.tee 5
 001905: 85                         |     i64.xor
 001906: 83                         |     i64.and
 001907: 42 00                      |     i64.const 0
 001909: 53                         |     i64.lt_s
 00190a: 0d 01                      |     br_if 1
 00190c: 20 05                      |     local.get 5
 00190e: 20 07                      |     local.get 7
 001910: 85                         |     i64.xor
 001911: 42 7f                      |     i64.const 18446744073709551615
 001913: 85                         |     i64.xor
 001914: 20 05                      |     local.get 5
 001916: 20 05                      |     local.get 5
 001918: 20 07                      |     local.get 7
 00191a: 7c                         |     i64.add
 00191b: 20 04                      |     local.get 4
 00191d: 20 06                      |     local.get 6
 00191f: 7c                         |     i64.add
 001920: 22 07                      |     local.tee 7
 001922: 20 04                      |     local.get 4
 001924: 54                         |     i64.lt_u
 001925: ad                         |     i64.extend_i32_u
 001926: 7c                         |     i64.add
 001927: 22 03                      |     local.tee 3
 001929: 85                         |     i64.xor
 00192a: 83                         |     i64.and
 00192b: 42 00                      |     i64.const 0
 00192d: 53                         |     i64.lt_s
 00192e: 0d 01                      |     br_if 1
 001930: 20 00                      |     local.get 0
 001932: 20 07                      |     local.get 7
 001934: 5a                         |     i64.ge_u
 001935: 20 01                      |     local.get 1
 001937: 20 03                      |     local.get 3
 001939: 59                         |     i64.ge_s
 00193a: 20 01                      |     local.get 1
 00193c: 20 03                      |     local.get 3
 00193e: 51                         |     i64.eq
 00193f: 1b                         |     select
 001940: 21 08                      |     local.set 8
 001942: 0b                         |   end
 001943: 20 08                      |   local.get 8
 001945: 0f                         |   return
 001946: 0b                         | end
 001947: 10 c1 80 80 80 00          | call 65
 00194d: 00                         | unreachable
 00194e: 0b                         | end
001950 func[65]:
 001951: 10 af 81 80 80 00          | call 175
 001957: 00                         | unreachable
 001958: 0b                         | end
00195a func[66]:
 00195b: 01 7f                      | local[1] type=i32
 00195d: 01 7e                      | local[2] type=i64
 00195f: 23 80 80 80 80 00          | global.get 0
 001965: 41 10                      | i32.const 16
 001967: 6b                         | i32.sub
 001968: 22 01                      | local.tee 1
 00196a: 24 80 80 80 80 00          | global.set 0
 001970: 20 01                      | local.get 1
 001972: 41 d3 81 c0 80 00          | i32.const 1048787
 001978: 41 09                      | i32.const 9
 00197a: 20 00                      | local.get 0
 00197c: 10 ba 80 80 80 00          | call 58
 001982: 20 01                      | local.get 1
 001984: 29 03 08                   | i64.load 3 8
 001987: 21 00                      | local.set 0
 001989: 20 01                      | local.get 1
 00198b: 29 03 00                   | i64.load 3 0
 00198e: 21 02                      | local.set 2
 001990: 20 01                      | local.get 1
 001992: 41 10                      | i32.const 16
 001994: 6a                         | i32.add
 001995: 24 80 80 80 80 00          | global.set 0
 00199b: 20 02                      | local.get 2
 00199d: 42 00                      | i64.const 0
 00199f: 52                         | i64.ne
 0019a0: 20 00                      | local.get 0
 0019a2: 42 00                      | i64.const 0
 0019a4: 55                         | i64.gt_s
 0019a5: 20 00                      | local.get 0
 0019a7: 50                         | i64.eqz
 0019a8: 1b                         | select
 0019a9: 0b                         | end
0019ab func[67]:
 0019ac: 20 00                      | local.get 0
 0019ae: 41 92 80 c0 80 00          | i32.const 1048594
 0019b4: 41 05                      | i32.const 5
 0019b6: 10 b7 80 80 80 00          | call 55
 0019bc: 0b                         | end
0019be func[68]:
 0019bf: 20 00                      | local.get 0
 0019c1: 41 97 80 c0 80 00          | i32.const 1048599
 0019c7: 41 05                      | i32.const 5
 0019c9: 10 b7 80 80 80 00          | call 55
 0019cf: 0b                         | end
0019d1 func[69]:
 0019d2: 20 00                      | local.get 0
 0019d4: 41 dc 81 c0 80 00          | i32.const 1048796
 0019da: 41 0b                      | i32.const 11
 0019dc: 20 01                      | local.get 1
 0019de: 10 ba 80 80 80 00          | call 58
 0019e4: 0b                         | end
0019e6 func[70]:
 0019e7: 20 00                      | local.get 0
 0019e9: 41 e7 81 c0 80 00          | i32.const 1048807
 0019ef: 41 09                      | i32.const 9
 0019f1: 20 01                      | local.get 1
 0019f3: 10 ba 80 80 80 00          | call 58
 0019f9: 0b                         | end
0019fb func[71]:
 0019fc: 20 00                      | local.get 0
 0019fe: 41 f0 81 c0 80 00          | i32.const 1048816
 001a04: 41 0a                      | i32.const 10
 001a06: 20 01                      | local.get 1
 001a08: 10 ba 80 80 80 00          | call 58
 001a0e: 0b                         | end
001a10 func[72]:
 001a11: 01 7f                      | local[1] type=i32
 001a13: 01 7e                      | local[2] type=i64
 001a15: 01 7f                      | local[3] type=i32
 001a17: 23 80 80 80 80 00          | global.get 0
 001a1d: 41 20                      | i32.const 32
 001a1f: 6b                         | i32.sub
 001a20: 22 01                      | local.tee 1
 001a22: 24 80 80 80 80 00          | global.set 0
 001a28: 20 01                      | local.get 1
 001a2a: 42 8e f2 b3 9d 8d 8d cc dd | i64.const 3151165591061854478
 001a33: 2b                         | 
 001a34: 10 9e 80 80 80 00          | call 30
 001a3a: 20 01                      | local.get 1
 001a3c: 29 03 10                   | i64.load 3 16
 001a3f: 21 02                      | local.set 2
 001a41: 20 00                      | local.get 0
 001a43: 20 01                      | local.get 1
 001a45: 29 03 18                   | i64.load 3 24
 001a48: 42 00                      | i64.const 0
 001a4a: 20 01                      | local.get 1
 001a4c: 28 02 00                   | i32.load 2 0
 001a4f: 41 01                      | i32.const 1
 001a51: 71                         | i32.and
 001a52: 22 03                      | local.tee 3
 001a54: 1b                         | select
 001a55: 37 03 08                   | i64.store 3 8
 001a58: 20 00                      | local.get 0
 001a5a: 20 02                      | local.get 2
 001a5c: 42 00                      | i64.const 0
 001a5e: 20 03                      | local.get 3
 001a60: 1b                         | select
 001a61: 37 03 00                   | i64.store 3 0
 001a64: 20 01                      | local.get 1
 001a66: 41 20                      | i32.const 32
 001a68: 6a                         | i32.add
 001a69: 24 80 80 80 80 00          | global.set 0
 001a6f: 0b                         | end
001a71 func[73]:
 001a72: 01 7f                      | local[1] type=i32
 001a74: 01 7e                      | local[2] type=i64
 001a76: 01 7f                      | local[3] type=i32
 001a78: 23 80 80 80 80 00          | global.get 0
 001a7e: 41 20                      | i32.const 32
 001a80: 6b                         | i32.sub
 001a81: 22 01                      | local.tee 1
 001a83: 24 80 80 80 80 00          | global.set 0
 001a89: 20 01                      | local.get 1
 001a8b: 42 8e f2 b3 9d 8d 8d cc e9 | i64.const 3662324148768405774
 001a94: 32                         | 
 001a95: 10 9e 80 80 80 00          | call 30
 001a9b: 20 01                      | local.get 1
 001a9d: 29 03 10                   | i64.load 3 16
 001aa0: 21 02                      | local.set 2
 001aa2: 20 00                      | local.get 0
 001aa4: 20 01                      | local.get 1
 001aa6: 29 03 18                   | i64.load 3 24
 001aa9: 42 00                      | i64.const 0
 001aab: 20 01                      | local.get 1
 001aad: 28 02 00                   | i32.load 2 0
 001ab0: 41 01                      | i32.const 1
 001ab2: 71                         | i32.and
 001ab3: 22 03                      | local.tee 3
 001ab5: 1b                         | select
 001ab6: 37 03 08                   | i64.store 3 8
 001ab9: 20 00                      | local.get 0
 001abb: 20 02                      | local.get 2
 001abd: 42 00                      | i64.const 0
 001abf: 20 03                      | local.get 3
 001ac1: 1b                         | select
 001ac2: 37 03 00                   | i64.store 3 0
 001ac5: 20 01                      | local.get 1
 001ac7: 41 20                      | i32.const 32
 001ac9: 6a                         | i32.add
 001aca: 24 80 80 80 80 00          | global.set 0
 001ad0: 0b                         | end
001ad2 func[74]:
 001ad3: 41 a0 81 c0 80 00          | i32.const 1048736
 001ad9: 41 12                      | i32.const 18
 001adb: 10 b2 80 80 80 00          | call 50
 001ae1: 20 00                      | local.get 0
 001ae3: 42 01                      | i64.const 1
 001ae5: 10 83 80 80 80 00          | call 3 <l._>
 001aeb: 1a                         | drop
 001aec: 0b                         | end
001aee func[75]:
 001aef: 02 7e                      | local[1..2] type=i64
 001af1: 42 00                      | i64.const 0
 001af3: 21 01                      | local.set 1
 001af5: 02 40                      | block
 001af7: 02 40                      |   block
 001af9: 41 a0 81 c0 80 00          |     i32.const 1048736
 001aff: 41 12                      |     i32.const 18
 001b01: 10 b2 80 80 80 00          |     call 50
 001b07: 22 02                      |     local.tee 2
 001b09: 42 01                      |     i64.const 1
 001b0b: 10 9d 80 80 80 00          |     call 29
 001b11: 45                         |     i32.eqz
 001b12: 0d 00                      |     br_if 0
 001b14: 20 02                      |     local.get 2
 001b16: 42 01                      |     i64.const 1
 001b18: 10 82 80 80 80 00          |     call 2 <l.1>
 001b1e: 22 01                      |     local.tee 1
 001b20: 42 ff 01                   |     i64.const 255
 001b23: 83                         |     i64.and
 001b24: 42 cd 00                   |     i64.const 77
 001b27: 52                         |     i64.ne
 001b28: 0d 01                      |     br_if 1
 001b2a: 20 00                      |     local.get 0
 001b2c: 20 01                      |     local.get 1
 001b2e: 37 03 08                   |     i64.store 3 8
 001b31: 42 01                      |     i64.const 1
 001b33: 21 01                      |     local.set 1
 001b35: 0b                         |   end
 001b36: 20 00                      |   local.get 0
 001b38: 20 01                      |   local.get 1
 001b3a: 37 03 00                   |   i64.store 3 0
 001b3d: 0f                         |   return
 001b3e: 0b                         | end
 001b3f: 00                         | unreachable
 001b40: 0b                         | end
001b43 func[76]:
 001b44: 01 7f                      | local[6] type=i32
 001b46: 03 7e                      | local[7..9] type=i64
 001b48: 01 7f                      | local[10] type=i32
 001b4a: 23 80 80 80 80 00          | global.get 0
 001b50: 41 c0 00                   | i32.const 64
 001b53: 6b                         | i32.sub
 001b54: 22 06                      | local.tee 6
 001b56: 24 80 80 80 80 00          | global.set 0
 001b5c: 20 06                      | local.get 6
 001b5e: 41 20                      | i32.const 32
 001b60: 6a                         | i32.add
 001b61: 10 cb 80 80 80 00          | call 75
 001b67: 02 40                      | block
 001b69: 02 40                      |   block
 001b6b: 20 06                      |     local.get 6
 001b6d: 28 02 20                   |     i32.load 2 32
 001b70: 41 01                      |     i32.const 1
 001b72: 47                         |     i32.ne
 001b73: 0d 00                      |     br_if 0
 001b75: 20 06                      |     local.get 6
 001b77: 29 03 28                   |     i64.load 3 40
 001b7a: 21 07                      |     local.set 7
 001b7c: 10 84 80 80 80 00          |     call 4 <x.7>
 001b82: 21 08                      |     local.set 8
 001b84: 41 eb 83 c0 80 00          |     i32.const 1049067
 001b8a: 41 20                      |     i32.const 32
 001b8c: 10 cd 80 80 80 00          |     call 77
 001b92: 21 09                      |     local.set 9
 001b94: 20 00                      |     local.get 0
 001b96: 20 01                      |     local.get 1
 001b98: 10 a7 80 80 80 00          |     call 39
 001b9e: 21 01                      |     local.set 1
 001ba0: 20 02                      |     local.get 2
 001ba2: 20 03                      |     local.get 3
 001ba4: 10 a7 80 80 80 00          |     call 39
 001baa: 21 03                      |     local.set 3
 001bac: 20 06                      |     local.get 6
 001bae: 20 04                      |     local.get 4
 001bb0: 20 05                      |     local.get 5
 001bb2: 10 a7 80 80 80 00          |     call 39
 001bb8: 37 03 18                   |     i64.store 3 24
 001bbb: 20 06                      |     local.get 6
 001bbd: 20 03                      |     local.get 3
 001bbf: 37 03 10                   |     i64.store 3 16
 001bc2: 20 06                      |     local.get 6
 001bc4: 20 01                      |     local.get 1
 001bc6: 37 03 08                   |     i64.store 3 8
 001bc9: 20 06                      |     local.get 6
 001bcb: 20 08                      |     local.get 8
 001bcd: 37 03 00                   |     i64.store 3 0
 001bd0: 41 00                      |     i32.const 0
 001bd2: 21 0a                      |     local.set 10
 001bd4: 03 40                      |     loop
 001bd6: 02 40                      |       block
 001bd8: 20 0a                      |         local.get 10
 001bda: 41 20                      |         i32.const 32
 001bdc: 47                         |         i32.ne
 001bdd: 0d 00                      |         br_if 0
 001bdf: 41 00                      |         i32.const 0
 001be1: 21 0a                      |         local.set 10
 001be3: 02 40                      |         block
 001be5: 03 40                      |           loop
 001be7: 20 0a                      |             local.get 10
 001be9: 41 20                      |             i32.const 32
 001beb: 46                         |             i32.eq
 001bec: 0d 01                      |             br_if 1
 001bee: 20 06                      |             local.get 6
 001bf0: 41 20                      |             i32.const 32
 001bf2: 6a                         |             i32.add
 001bf3: 20 0a                      |             local.get 10
 001bf5: 6a                         |             i32.add
 001bf6: 20 06                      |             local.get 6
 001bf8: 20 0a                      |             local.get 10
 001bfa: 6a                         |             i32.add
 001bfb: 29 03 00                   |             i64.load 3 0
 001bfe: 37 03 00                   |             i64.store 3 0
 001c01: 20 0a                      |             local.get 10
 001c03: 41 08                      |             i32.const 8
 001c05: 6a                         |             i32.add
 001c06: 21 0a                      |             local.set 10
 001c08: 0c 00                      |             br 0
 001c0a: 0b                         |           end
 001c0b: 0b                         |         end
 001c0c: 20 07                      |         local.get 7
 001c0e: 20 09                      |         local.get 9
 001c10: 20 06                      |         local.get 6
 001c12: 41 20                      |         i32.const 32
 001c14: 6a                         |         i32.add
 001c15: 41 04                      |         i32.const 4
 001c17: 10 b0 80 80 80 00          |         call 48
 001c1d: 10 85 80 80 80 00          |         call 5 <d._>
 001c23: 22 05                      |         local.tee 5
 001c25: a7                         |         i32.wrap_i64
 001c26: 41 ff 01                   |         i32.const 255
 001c29: 71                         |         i32.and
 001c2a: 22 0a                      |         local.tee 10
 001c2c: 41 0e                      |         i32.const 14
 001c2e: 46                         |         i32.eq
 001c2f: 0d 03                      |         br_if 3
 001c31: 20 0a                      |         local.get 10
 001c33: 41 ca 00                   |         i32.const 74
 001c36: 46                         |         i32.eq
 001c37: 0d 03                      |         br_if 3
 001c39: 10 c1 80 80 80 00          |         call 65
 001c3f: 00                         |         unreachable
 001c40: 0b                         |       end
 001c41: 20 06                      |       local.get 6
 001c43: 41 20                      |       i32.const 32
 001c45: 6a                         |       i32.add
 001c46: 20 0a                      |       local.get 10
 001c48: 6a                         |       i32.add
 001c49: 42 02                      |       i64.const 2
 001c4b: 37 03 00                   |       i64.store 3 0
 001c4e: 20 0a                      |       local.get 10
 001c50: 41 08                      |       i32.const 8
 001c52: 6a                         |       i32.add
 001c53: 21 0a                      |       local.set 10
 001c55: 0c 00                      |       br 0
 001c57: 0b                         |     end
 001c58: 0b                         |   end
 001c59: 42 8e e2 b4 ba 9d a0 cf 01 |   i64.const 911503046553870
 001c62: 21 05                      |   local.set 5
 001c64: 0b                         | end
 001c65: 20 06                      | local.get 6
 001c67: 41 c0 00                   | i32.const 64
 001c6a: 6a                         | i32.add
 001c6b: 24 80 80 80 80 00          | global.set 0
 001c71: 20 05                      | local.get 5
 001c73: 0b                         | end
001c75 func[77]:
 001c76: 01 7f                      | local[2] type=i32
 001c78: 01 7e                      | local[3] type=i64
 001c7a: 23 80 80 80 80 00          | global.get 0
 001c80: 41 10                      | i32.const 16
 001c82: 6b                         | i32.sub
 001c83: 22 02                      | local.tee 2
 001c85: 24 80 80 80 80 00          | global.set 0
 001c8b: 20 02                      | local.get 2
 001c8d: 20 00                      | local.get 0
 001c8f: 20 01                      | local.get 1
 001c91: 10 b0 81 80 80 00          | call 176
 001c97: 02 40                      | block
 001c99: 20 02                      |   local.get 2
 001c9b: 28 02 00                   |   i32.load 2 0
 001c9e: 41 01                      |   i32.const 1
 001ca0: 47                         |   i32.ne
 001ca1: 0d 00                      |   br_if 0
 001ca3: 00                         |   unreachable
 001ca4: 0b                         | end
 001ca5: 20 02                      | local.get 2
 001ca7: 29 03 08                   | i64.load 3 8
 001caa: 21 03                      | local.set 3
 001cac: 20 02                      | local.get 2
 001cae: 41 10                      | i32.const 16
 001cb0: 6a                         | i32.add
 001cb1: 24 80 80 80 80 00          | global.set 0
 001cb7: 20 03                      | local.get 3
 001cb9: 0b                         | end
001cbb func[78]:
 001cbc: 02 7f                      | local[1..2] type=i32
 001cbe: 23 80 80 80 80 00          | global.get 0
 001cc4: 41 10                      | i32.const 16
 001cc6: 6b                         | i32.sub
 001cc7: 22 01                      | local.tee 1
 001cc9: 24 80 80 80 80 00          | global.set 0
 001ccf: 20 01                      | local.get 1
 001cd1: 41 08                      | i32.const 8
 001cd3: 6a                         | i32.add
 001cd4: 20 00                      | local.get 0
 001cd6: 42 8e ba da 8f d3 83 ed 34 | i64.const 29752910039915790
 001cdf: 10 cf 80 80 80 00          | call 79
 001ce5: 20 01                      | local.get 1
 001ce7: 28 02 08                   | i32.load 2 8
 001cea: 21 02                      | local.set 2
 001cec: 20 01                      | local.get 1
 001cee: 41 10                      | i32.const 16
 001cf0: 6a                         | i32.add
 001cf1: 24 80 80 80 80 00          | global.set 0
 001cf7: 20 02                      | local.get 2
 001cf9: 41 00                      | i32.const 0
 001cfb: 47                         | i32.ne
 001cfc: 0b                         | end
001cfe func[79]:
 001cff: 03 7f                      | local[3..5] type=i32
 001d01: 23 80 80 80 80 00          | global.get 0
 001d07: 41 20                      | i32.const 32
 001d09: 6b                         | i32.sub
 001d0a: 22 03                      | local.tee 3
 001d0c: 24 80 80 80 80 00          | global.set 0
 001d12: 20 03                      | local.get 3
 001d14: 20 02                      | local.get 2
 001d16: 37 03 18                   | i64.store 3 24
 001d19: 20 03                      | local.get 3
 001d1b: 20 01                      | local.get 1
 001d1d: 37 03 10                   | i64.store 3 16
 001d20: 20 03                      | local.get 3
 001d22: 42 01                      | i64.const 1
 001d24: 37 03 08                   | i64.store 3 8
 001d27: 20 03                      | local.get 3
 001d29: 20 03                      | local.get 3
 001d2b: 41 08                      | i32.const 8
 001d2d: 6a                         | i32.add
 001d2e: 10 95 81 80 80 00          | call 149
 001d34: 20 03                      | local.get 3
 001d36: 28 02 04                   | i32.load 2 4
 001d39: 21 04                      | local.set 4
 001d3b: 02 40                      | block
 001d3d: 20 03                      |   local.get 3
 001d3f: 28 02 00                   |   i32.load 2 0
 001d42: 22 05                      |   local.tee 5
 001d44: 41 01                      |   i32.const 1
 001d46: 71                         |   i32.and
 001d47: 45                         |   i32.eqz
 001d48: 0d 00                      |   br_if 0
 001d4a: 20 03                      |   local.get 3
 001d4c: 41 08                      |   i32.const 8
 001d4e: 6a                         |   i32.add
 001d4f: 10 96 81 80 80 00          |   call 150
 001d55: 0b                         | end
 001d56: 20 00                      | local.get 0
 001d58: 20 04                      | local.get 4
 001d5a: 36 02 04                   | i32.store 2 4
 001d5d: 20 00                      | local.get 0
 001d5f: 20 05                      | local.get 5
 001d61: 36 02 00                   | i32.store 2 0
 001d64: 20 03                      | local.get 3
 001d66: 41 20                      | i32.const 32
 001d68: 6a                         | i32.add
 001d69: 24 80 80 80 80 00          | global.set 0
 001d6f: 0b                         | end
001d72 func[80]:
 001d73: 01 7e                      | local[1] type=i64
 001d75: 01 7f                      | local[2] type=i32
 001d77: 01 7e                      | local[3] type=i64
 001d79: 02 40                      | block
 001d7b: 02 40                      |   block
 001d7d: 02 40                      |     block
 001d7f: 10 86 80 80 80 00          |       call 6 <x.4>
 001d85: 22 01                      |       local.tee 1
 001d87: a7                         |       i32.wrap_i64
 001d88: 41 ff 01                   |       i32.const 255
 001d8b: 71                         |       i32.and
 001d8c: 22 02                      |       local.tee 2
 001d8e: 41 06                      |       i32.const 6
 001d90: 46                         |       i32.eq
 001d91: 0d 00                      |       br_if 0
 001d93: 20 02                      |       local.get 2
 001d95: 41 c0 00                   |       i32.const 64
 001d98: 47                         |       i32.ne
 001d99: 0d 02                      |       br_if 2
 001d9b: 20 01                      |       local.get 1
 001d9d: 10 81 80 80 80 00          |       call 1 <i.0>
 001da3: 21 01                      |       local.set 1
 001da5: 0c 01                      |       br 1
 001da7: 0b                         |     end
 001da8: 20 01                      |     local.get 1
 001daa: 42 08                      |     i64.const 8
 001dac: 88                         |     i64.shr_u
 001dad: 21 01                      |     local.set 1
 001daf: 0b                         |   end
 001db0: 20 01                      |   local.get 1
 001db2: 42 80 a3 05                |   i64.const 86400
 001db6: 7c                         |   i64.add
 001db7: 22 03                      |   local.tee 3
 001db9: 20 01                      |   local.get 1
 001dbb: 54                         |   i64.lt_u
 001dbc: 0d 00                      |   br_if 0
 001dbe: 41 0e                      |   i32.const 14
 001dc0: 21 02                      |   local.set 2
 001dc2: 02 40                      |   block
 001dc4: 20 00                      |     local.get 0
 001dc6: 20 03                      |     local.get 3
 001dc8: 56                         |     i64.gt_u
 001dc9: 0d 00                      |     br_if 0
 001dcb: 41 0f                      |     i32.const 15
 001dcd: 41 1f                      |     i32.const 31
 001dcf: 20 00                      |     local.get 0
 001dd1: 42 00                      |     i64.const 0
 001dd3: 20 01                      |     local.get 1
 001dd5: 42 80 fa cf e9 7e          |     i64.const 18446744073394191616
 001ddb: 7c                         |     i64.add
 001ddc: 22 03                      |     local.tee 3
 001dde: 20 03                      |     local.get 3
 001de0: 20 01                      |     local.get 1
 001de2: 56                         |     i64.gt_u
 001de3: 1b                         |     select
 001de4: 54                         |     i64.lt_u
 001de5: 1b                         |     select
 001de6: 21 02                      |     local.set 2
 001de8: 0b                         |   end
 001de9: 20 02                      |   local.get 2
 001deb: 0f                         |   return
 001dec: 0b                         | end
 001ded: 10 c1 80 80 80 00          | call 65
 001df3: 00                         | unreachable
 001df4: 0b                         | end
001df6 func[81]:
 001df7: 01 7f                      | local[3] type=i32
 001df9: 02 40                      | block
 001dfb: 20 00                      |   local.get 0
 001dfd: 10 87 80 80 80 00          |   call 7 <b.k>
 001e03: 22 00                      |   local.tee 0
 001e05: 42 80 80 80 80 10          |   i64.const 4294967296
 001e0b: 5a                         |   i64.ge_u
 001e0c: 0d 00                      |   br_if 0
 001e0e: 41 1f                      |   i32.const 31
 001e10: 0f                         |   return
 001e11: 0b                         | end
 001e12: 02 40                      | block
 001e14: 20 01                      |   local.get 1
 001e16: 20 00                      |   local.get 0
 001e18: 42 20                      |   i64.const 32
 001e1a: 88                         |   i64.shr_u
 001e1b: a7                         |   i32.wrap_i64
 001e1c: 22 03                      |   local.tee 3
 001e1e: 4d                         |   i32.le_u
 001e1f: 0d 00                      |   br_if 0
 001e21: 41 15                      |   i32.const 21
 001e23: 0f                         |   return
 001e24: 0b                         | end
 001e25: 41 16                      | i32.const 22
 001e27: 41 1f                      | i32.const 31
 001e29: 20 02                      | local.get 2
 001e2b: 20 03                      | local.get 3
 001e2d: 49                         | i32.lt_u
 001e2e: 1b                         | select
 001e2f: 0b                         | end
001e31 func[82]:
 001e32: 02 40                      | block
 001e34: 20 00                      |   local.get 0
 001e36: 10 87 80 80 80 00          |   call 7 <b.k>
 001e3c: 22 00                      |   local.tee 0
 001e3e: 42 80 80 80 80 10          |   i64.const 4294967296
 001e44: 5a                         |   i64.ge_u
 001e45: 0d 00                      |   br_if 0
 001e47: 41 1f                      |   i32.const 31
 001e49: 0f                         |   return
 001e4a: 0b                         | end
 001e4b: 02 40                      | block
 001e4d: 20 00                      |   local.get 0
 001e4f: 42 ff ff ff ff ff 00       |   i64.const 34359738367
 001e56: 56                         |   i64.gt_u
 001e57: 0d 00                      |   br_if 0
 001e59: 41 18                      |   i32.const 24
 001e5b: 0f                         |   return
 001e5c: 0b                         | end
 001e5d: 41 19                      | i32.const 25
 001e5f: 41 1f                      | i32.const 31
 001e61: 20 00                      | local.get 0
 001e63: 42 ff ff ff ff 8f 80 02    | i64.const 8800387989503
 001e6b: 56                         | i64.gt_u
 001e6c: 1b                         | select
 001e6d: 0b                         | end
001e6f func[83]:
 001e70: 41 1f                      | i32.const 31
 001e72: 41 1c                      | i32.const 28
 001e74: 20 00                      | local.get 0
 001e76: 10 c2 80 80 80 00          | call 66
 001e7c: 1b                         | select
 001e7d: 0b                         | end
001e80 func[84]:
 001e81: 02 7f                      | local[8..9] type=i32
 001e83: 03 7e                      | local[10..12] type=i64
 001e85: 23 80 80 80 80 00          | global.get 0
 001e8b: 41 e0 00                   | i32.const 96
 001e8e: 6b                         | i32.sub
 001e8f: 22 08                      | local.tee 8
 001e91: 24 80 80 80 80 00          | global.set 0
 001e97: 02 40                      | block
 001e99: 41 00                      |   i32.const 0
 001e9b: 41 01                      |   i32.const 1
 001e9d: 41 1f                      |   i32.const 31
 001e9f: 20 00                      |   local.get 0
 001ea1: 42 e1 f5 d1 f0 fa a8 b8 bd |   i64.const 1475739525896764129
 001eaa: 14                         | 
 001eab: 56                         |   i64.gt_u
 001eac: 20 01                      |   local.get 1
 001eae: 42 ae 8f 85 d7 c7 c2 eb a3 |   i64.const 92233720368547758
 001eb7: 01                         | 
 001eb8: 56                         |   i64.gt_u
 001eb9: 20 01                      |   local.get 1
 001ebb: 42 ae 8f 85 d7 c7 c2 eb a3 |   i64.const 92233720368547758
 001ec4: 01                         | 
 001ec5: 51                         |   i64.eq
 001ec6: 1b                         |   select
 001ec7: 1b                         |   select
 001ec8: 20 00                      |   local.get 0
 001eca: 50                         |   i64.eqz
 001ecb: 20 01                      |   local.get 1
 001ecd: 42 00                      |   i64.const 0
 001ecf: 53                         |   i64.lt_s
 001ed0: 20 01                      |   local.get 1
 001ed2: 50                         |   i64.eqz
 001ed3: 1b                         |   select
 001ed4: 1b                         |   select
 001ed5: 22 09                      |   local.tee 9
 001ed7: 41 1f                      |   i32.const 31
 001ed9: 47                         |   i32.ne
 001eda: 0d 00                      |   br_if 0
 001edc: 41 00                      |   i32.const 0
 001ede: 41 01                      |   i32.const 1
 001ee0: 41 1f                      |   i32.const 31
 001ee2: 20 02                      |   local.get 2
 001ee4: 42 e1 f5 d1 f0 fa a8 b8 bd |   i64.const 1475739525896764129
 001eed: 14                         | 
 001eee: 56                         |   i64.gt_u
 001eef: 20 03                      |   local.get 3
 001ef1: 42 ae 8f 85 d7 c7 c2 eb a3 |   i64.const 92233720368547758
 001efa: 01                         | 
 001efb: 56                         |   i64.gt_u
 001efc: 20 03                      |   local.get 3
 001efe: 42 ae 8f 85 d7 c7 c2 eb a3 |   i64.const 92233720368547758
 001f07: 01                         | 
 001f08: 51                         |   i64.eq
 001f09: 1b                         |   select
 001f0a: 1b                         |   select
 001f0b: 20 02                      |   local.get 2
 001f0d: 50                         |   i64.eqz
 001f0e: 20 03                      |   local.get 3
 001f10: 42 00                      |   i64.const 0
 001f12: 53                         |   i64.lt_s
 001f13: 20 03                      |   local.get 3
 001f15: 50                         |   i64.eqz
 001f16: 1b                         |   select
 001f17: 1b                         |   select
 001f18: 22 09                      |   local.tee 9
 001f1a: 41 1f                      |   i32.const 31
 001f1c: 47                         |   i32.ne
 001f1d: 0d 00                      |   br_if 0
 001f1f: 41 00                      |   i32.const 0
 001f21: 41 01                      |   i32.const 1
 001f23: 41 1f                      |   i32.const 31
 001f25: 20 04                      |   local.get 4
 001f27: 42 e1 f5 d1 f0 fa a8 b8 bd |   i64.const 1475739525896764129
 001f30: 14                         | 
 001f31: 56                         |   i64.gt_u
 001f32: 20 05                      |   local.get 5
 001f34: 42 ae 8f 85 d7 c7 c2 eb a3 |   i64.const 92233720368547758
 001f3d: 01                         | 
 001f3e: 56                         |   i64.gt_u
 001f3f: 20 05                      |   local.get 5
 001f41: 42 ae 8f 85 d7 c7 c2 eb a3 |   i64.const 92233720368547758
 001f4a: 01                         | 
 001f4b: 51                         |   i64.eq
 001f4c: 1b                         |   select
 001f4d: 1b                         |   select
 001f4e: 20 04                      |   local.get 4
 001f50: 50                         |   i64.eqz
 001f51: 20 05                      |   local.get 5
 001f53: 42 00                      |   i64.const 0
 001f55: 53                         |   i64.lt_s
 001f56: 20 05                      |   local.get 5
 001f58: 50                         |   i64.eqz
 001f59: 1b                         |   select
 001f5a: 1b                         |   select
 001f5b: 22 09                      |   local.tee 9
 001f5d: 41 1f                      |   i32.const 31
 001f5f: 47                         |   i32.ne
 001f60: 0d 00                      |   br_if 0
 001f62: 41 00                      |   i32.const 0
 001f64: 21 09                      |   local.set 9
 001f66: 20 07                      |   local.get 7
 001f68: 42 00                      |   i64.const 0
 001f6a: 53                         |   i64.lt_s
 001f6b: 0d 00                      |   br_if 0
 001f6d: 02 40                      |   block
 001f6f: 20 06                      |     local.get 6
 001f71: 42 e1 f5 d1 f0 fa a8 b8 bd |     i64.const 1475739525896764129
 001f7a: 14                         | 
 001f7b: 56                         |     i64.gt_u
 001f7c: 20 07                      |     local.get 7
 001f7e: 42 ae 8f 85 d7 c7 c2 eb a3 |     i64.const 92233720368547758
 001f87: 01                         | 
 001f88: 56                         |     i64.gt_u
 001f89: 20 07                      |     local.get 7
 001f8b: 42 ae 8f 85 d7 c7 c2 eb a3 |     i64.const 92233720368547758
 001f94: 01                         | 
 001f95: 51                         |     i64.eq
 001f96: 1b                         |     select
 001f97: 45                         |     i32.eqz
 001f98: 0d 00                      |     br_if 0
 001f9a: 41 01                      |     i32.const 1
 001f9c: 21 09                      |     local.set 9
 001f9e: 0c 01                      |     br 1
 001fa0: 0b                         |   end
 001fa1: 02 40                      |   block
 001fa3: 02 40                      |     block
 001fa5: 20 03                      |       local.get 3
 001fa7: 20 05                      |       local.get 5
 001fa9: 85                         |       i64.xor
 001faa: 42 7f                      |       i64.const 18446744073709551615
 001fac: 85                         |       i64.xor
 001fad: 20 03                      |       local.get 3
 001faf: 20 03                      |       local.get 3
 001fb1: 20 05                      |       local.get 5
 001fb3: 7c                         |       i64.add
 001fb4: 20 02                      |       local.get 2
 001fb6: 20 04                      |       local.get 4
 001fb8: 7c                         |       i64.add
 001fb9: 22 0a                      |       local.tee 10
 001fbb: 20 02                      |       local.get 2
 001fbd: 54                         |       i64.lt_u
 001fbe: ad                         |       i64.extend_i32_u
 001fbf: 7c                         |       i64.add
 001fc0: 22 0b                      |       local.tee 11
 001fc2: 85                         |       i64.xor
 001fc3: 83                         |       i64.and
 001fc4: 42 00                      |       i64.const 0
 001fc6: 53                         |       i64.lt_s
 001fc7: 0d 00                      |       br_if 0
 001fc9: 20 0b                      |       local.get 11
 001fcb: 20 07                      |       local.get 7
 001fcd: 85                         |       i64.xor
 001fce: 42 7f                      |       i64.const 18446744073709551615
 001fd0: 85                         |       i64.xor
 001fd1: 20 0b                      |       local.get 11
 001fd3: 20 0b                      |       local.get 11
 001fd5: 20 07                      |       local.get 7
 001fd7: 7c                         |       i64.add
 001fd8: 20 0a                      |       local.get 10
 001fda: 20 06                      |       local.get 6
 001fdc: 7c                         |       i64.add
 001fdd: 22 0c                      |       local.tee 12
 001fdf: 20 0a                      |       local.get 10
 001fe1: 54                         |       i64.lt_u
 001fe2: ad                         |       i64.extend_i32_u
 001fe3: 7c                         |       i64.add
 001fe4: 22 0a                      |       local.tee 10
 001fe6: 85                         |       i64.xor
 001fe7: 83                         |       i64.and
 001fe8: 42 00                      |       i64.const 0
 001fea: 53                         |       i64.lt_s
 001feb: 0d 00                      |       br_if 0
 001fed: 20 01                      |       local.get 1
 001fef: 20 0a                      |       local.get 10
 001ff1: 85                         |       i64.xor
 001ff2: 20 01                      |       local.get 1
 001ff4: 20 01                      |       local.get 1
 001ff6: 20 0a                      |       local.get 10
 001ff8: 7d                         |       i64.sub
 001ff9: 20 00                      |       local.get 0
 001ffb: 20 0c                      |       local.get 12
 001ffd: 54                         |       i64.lt_u
 001ffe: ad                         |       i64.extend_i32_u
 001fff: 7d                         |       i64.sub
 002000: 22 0b                      |       local.tee 11
 002002: 85                         |       i64.xor
 002003: 83                         |       i64.and
 002004: 42 00                      |       i64.const 0
 002006: 53                         |       i64.lt_s
 002007: 0d 00                      |       br_if 0
 002009: 20 00                      |       local.get 0
 00200b: 20 0c                      |       local.get 12
 00200d: 7d                         |       i64.sub
 00200e: 21 0a                      |       local.set 10
 002010: 02 40                      |       block
 002012: 20 0b                      |         local.get 11
 002014: 42 7f                      |         i64.const 18446744073709551615
 002016: 55                         |         i64.gt_s
 002017: 0d 00                      |         br_if 0
 002019: 20 0a                      |         local.get 10
 00201b: 20 0b                      |         local.get 11
 00201d: 42 80 80 80 80 80 80 80 80 |         i64.const 9223372036854775808
 002026: 80 7f                      | 
 002028: 85                         |         i64.xor
 002029: 84                         |         i64.or
 00202a: 50                         |         i64.eqz
 00202b: 0d 01                      |         br_if 1
 00202d: 42 00                      |         i64.const 0
 00202f: 20 0b                      |         local.get 11
 002031: 20 0a                      |         local.get 10
 002033: 42 00                      |         i64.const 0
 002035: 52                         |         i64.ne
 002036: ad                         |         i64.extend_i32_u
 002037: 7c                         |         i64.add
 002038: 7d                         |         i64.sub
 002039: 21 0b                      |         local.set 11
 00203b: 42 00                      |         i64.const 0
 00203d: 20 0a                      |         local.get 10
 00203f: 7d                         |         i64.sub
 002040: 21 0a                      |         local.set 10
 002042: 0b                         |       end
 002043: 02 40                      |       block
 002045: 20 0a                      |         local.get 10
 002047: 42 01                      |         i64.const 1
 002049: 56                         |         i64.gt_u
 00204a: 20 0b                      |         local.get 11
 00204c: 42 00                      |         i64.const 0
 00204e: 52                         |         i64.ne
 00204f: 20 0b                      |         local.get 11
 002051: 50                         |         i64.eqz
 002052: 1b                         |         select
 002053: 45                         |         i32.eqz
 002054: 0d 00                      |         br_if 0
 002056: 41 06                      |         i32.const 6
 002058: 21 09                      |         local.set 9
 00205a: 0c 03                      |         br 3
 00205c: 0b                         |       end
 00205d: 20 08                      |       local.get 8
 00205f: 41 00                      |       i32.const 0
 002061: 36 02 5c                   |       i32.store 2 92
 002064: 20 08                      |       local.get 8
 002066: 41 c0 00                   |       i32.const 64
 002069: 6a                         |       i32.add
 00206a: 20 00                      |       local.get 0
 00206c: 20 01                      |       local.get 1
 00206e: 42 3c                      |       i64.const 60
 002070: 42 00                      |       i64.const 0
 002072: 20 08                      |       local.get 8
 002074: 41 dc 00                   |       i32.const 92
 002077: 6a                         |       i32.add
 002078: 10 ba 81 80 80 00          |       call 186
 00207e: 20 08                      |       local.get 8
 002080: 28 02 5c                   |       i32.load 2 92
 002083: 0d 00                      |       br_if 0
 002085: 20 08                      |       local.get 8
 002087: 41 30                      |       i32.const 48
 002089: 6a                         |       i32.add
 00208a: 20 08                      |       local.get 8
 00208c: 29 03 40                   |       i64.load 3 64
 00208f: 20 08                      |       local.get 8
 002091: 29 03 48                   |       i64.load 3 72
 002094: 42 e4 00                   |       i64.const 100
 002097: 42 00                      |       i64.const 0
 002099: 10 bd 81 80 80 00          |       call 189
 00209f: 20 02                      |       local.get 2
 0020a1: 20 08                      |       local.get 8
 0020a3: 29 03 30                   |       i64.load 3 48
 0020a6: 54                         |       i64.lt_u
 0020a7: 20 03                      |       local.get 3
 0020a9: 20 08                      |       local.get 8
 0020ab: 29 03 38                   |       i64.load 3 56
 0020ae: 22 02                      |       local.tee 2
 0020b0: 53                         |       i64.lt_s
 0020b1: 20 03                      |       local.get 3
 0020b3: 20 02                      |       local.get 2
 0020b5: 51                         |       i64.eq
 0020b6: 1b                         |       select
 0020b7: 45                         |       i32.eqz
 0020b8: 0d 01                      |       br_if 1
 0020ba: 41 07                      |       i32.const 7
 0020bc: 21 09                      |       local.set 9
 0020be: 0c 02                      |       br 2
 0020c0: 0b                         |     end
 0020c1: 10 c1 80 80 80 00          |     call 65
 0020c7: 00                         |     unreachable
 0020c8: 0b                         |   end
 0020c9: 20 08                      |   local.get 8
 0020cb: 41 20                      |   i32.const 32
 0020cd: 6a                         |   i32.add
 0020ce: 20 00                      |   local.get 0
 0020d0: 20 01                      |   local.get 1
 0020d2: 42 1e                      |   i64.const 30
 0020d4: 42 00                      |   i64.const 0
 0020d6: 10 bf 81 80 80 00          |   call 191
 0020dc: 20 08                      |   local.get 8
 0020de: 41 10                      |   i32.const 16
 0020e0: 6a                         |   i32.add
 0020e1: 20 08                      |   local.get 8
 0020e3: 29 03 20                   |   i64.load 3 32
 0020e6: 20 08                      |   local.get 8
 0020e8: 29 03 28                   |   i64.load 3 40
 0020eb: 42 e4 00                   |   i64.const 100
 0020ee: 42 00                      |   i64.const 0
 0020f0: 10 bd 81 80 80 00          |   call 189
 0020f6: 02 40                      |   block
 0020f8: 20 04                      |     local.get 4
 0020fa: 20 08                      |     local.get 8
 0020fc: 29 03 10                   |     i64.load 3 16
 0020ff: 56                         |     i64.gt_u
 002100: 20 05                      |     local.get 5
 002102: 20 08                      |     local.get 8
 002104: 29 03 18                   |     i64.load 3 24
 002107: 22 03                      |     local.tee 3
 002109: 55                         |     i64.gt_s
 00210a: 20 05                      |     local.get 5
 00210c: 20 03                      |     local.get 3
 00210e: 51                         |     i64.eq
 00210f: 1b                         |     select
 002110: 45                         |     i32.eqz
 002111: 0d 00                      |     br_if 0
 002113: 41 08                      |     i32.const 8
 002115: 21 09                      |     local.set 9
 002117: 0c 01                      |     br 1
 002119: 0b                         |   end
 00211a: 20 08                      |   local.get 8
 00211c: 20 00                      |   local.get 0
 00211e: 20 01                      |   local.get 1
 002120: 42 05                      |   i64.const 5
 002122: 42 00                      |   i64.const 0
 002124: 10 bd 81 80 80 00          |   call 189
 00212a: 41 09                      |   i32.const 9
 00212c: 41 1f                      |   i32.const 31
 00212e: 20 06                      |   local.get 6
 002130: 20 08                      |   local.get 8
 002132: 29 03 00                   |   i64.load 3 0
 002135: 56                         |   i64.gt_u
 002136: 20 07                      |   local.get 7
 002138: 20 08                      |   local.get 8
 00213a: 29 03 08                   |   i64.load 3 8
 00213d: 22 01                      |   local.tee 1
 00213f: 55                         |   i64.gt_s
 002140: 20 07                      |   local.get 7
 002142: 20 01                      |   local.get 1
 002144: 51                         |   i64.eq
 002145: 1b                         |   select
 002146: 1b                         |   select
 002147: 21 09                      |   local.set 9
 002149: 0b                         | end
 00214a: 20 08                      | local.get 8
 00214c: 41 e0 00                   | i32.const 96
 00214f: 6a                         | i32.add
 002150: 24 80 80 80 80 00          | global.set 0
 002156: 20 09                      | local.get 9
 002158: 0b                         | end
00215b func[85] <hello>:
 00215c: 01 7f                      | local[1] type=i32
 00215e: 01 7e                      | local[2] type=i64
 002160: 01 7f                      | local[3] type=i32
 002162: 23 80 80 80 80 00          | global.get 0
 002168: 41 20                      | i32.const 32
 00216a: 6b                         | i32.sub
 00216b: 22 01                      | local.tee 1
 00216d: 24 80 80 80 80 00          | global.set 0
 002173: 02 40                      | block
 002175: 20 00                      |   local.get 0
 002177: 42 ff 01                   |   i64.const 255
 00217a: 83                         |   i64.and
 00217b: 42 c9 00                   |   i64.const 73
 00217e: 52                         |   i64.ne
 00217f: 0d 00                      |   br_if 0
 002181: 41 e5 82 c0 80 00          |   i32.const 1048933
 002187: 41 05                      |   i32.const 5
 002189: 10 d6 80 80 80 00          |   call 86
 00218f: 21 02                      |   local.set 2
 002191: 20 01                      |   local.get 1
 002193: 20 00                      |   local.get 0
 002195: 37 03 08                   |   i64.store 3 8
 002198: 20 01                      |   local.get 1
 00219a: 20 02                      |   local.get 2
 00219c: 37 03 00                   |   i64.store 3 0
 00219f: 41 00                      |   i32.const 0
 0021a1: 21 03                      |   local.set 3
 0021a3: 03 40                      |   loop
 0021a5: 02 40                      |     block
 0021a7: 20 03                      |       local.get 3
 0021a9: 41 10                      |       i32.const 16
 0021ab: 47                         |       i32.ne
 0021ac: 0d 00                      |       br_if 0
 0021ae: 41 00                      |       i32.const 0
 0021b0: 21 03                      |       local.set 3
 0021b2: 02 40                      |       block
 0021b4: 03 40                      |         loop
 0021b6: 20 03                      |           local.get 3
 0021b8: 41 10                      |           i32.const 16
 0021ba: 46                         |           i32.eq
 0021bb: 0d 01                      |           br_if 1
 0021bd: 20 01                      |           local.get 1
 0021bf: 41 10                      |           i32.const 16
 0021c1: 6a                         |           i32.add
 0021c2: 20 03                      |           local.get 3
 0021c4: 6a                         |           i32.add
 0021c5: 20 01                      |           local.get 1
 0021c7: 20 03                      |           local.get 3
 0021c9: 6a                         |           i32.add
 0021ca: 29 03 00                   |           i64.load 3 0
 0021cd: 37 03 00                   |           i64.store 3 0
 0021d0: 20 03                      |           local.get 3
 0021d2: 41 08                      |           i32.const 8
 0021d4: 6a                         |           i32.add
 0021d5: 21 03                      |           local.set 3
 0021d7: 0c 00                      |           br 0
 0021d9: 0b                         |         end
 0021da: 0b                         |       end
 0021db: 20 01                      |       local.get 1
 0021dd: 41 10                      |       i32.const 16
 0021df: 6a                         |       i32.add
 0021e0: 41 02                      |       i32.const 2
 0021e2: 10 b0 80 80 80 00          |       call 48
 0021e8: 21 00                      |       local.set 0
 0021ea: 20 01                      |       local.get 1
 0021ec: 41 20                      |       i32.const 32
 0021ee: 6a                         |       i32.add
 0021ef: 24 80 80 80 80 00          |       global.set 0
 0021f5: 20 00                      |       local.get 0
 0021f7: 0f                         |       return
 0021f8: 0b                         |     end
 0021f9: 20 01                      |     local.get 1
 0021fb: 41 10                      |     i32.const 16
 0021fd: 6a                         |     i32.add
 0021fe: 20 03                      |     local.get 3
 002200: 6a                         |     i32.add
 002201: 42 02                      |     i64.const 2
 002203: 37 03 00                   |     i64.store 3 0
 002206: 20 03                      |     local.get 3
 002208: 41 08                      |     i32.const 8
 00220a: 6a                         |     i32.add
 00220b: 21 03                      |     local.set 3
 00220d: 0c 00                      |     br 0
 00220f: 0b                         |   end
 002210: 0b                         | end
 002211: 00                         | unreachable
 002212: 0b                         | end
002214 func[86]:
 002215: 20 00                      | local.get 0
 002217: ad                         | i64.extend_i32_u
 002218: 42 20                      | i64.const 32
 00221a: 86                         | i64.shl
 00221b: 42 04                      | i64.const 4
 00221d: 84                         | i64.or
 00221e: 20 01                      | local.get 1
 002220: ad                         | i64.extend_i32_u
 002221: 42 20                      | i64.const 32
 002223: 86                         | i64.shl
 002224: 42 04                      | i64.const 4
 002226: 84                         | i64.or
 002227: 10 94 80 80 80 00          | call 20 <b.i>
 00222d: 0b                         | end
00222f func[87] <set_value>:
 002230: 01 7f                      | local[2] type=i32
 002232: 02 40                      | block
 002234: 02 40                      |   block
 002236: 20 00                      |     local.get 0
 002238: a7                         |     i32.wrap_i64
 002239: 41 ff 01                   |     i32.const 255
 00223c: 71                         |     i32.and
 00223d: 22 02                      |     local.tee 2
 00223f: 41 0e                      |     i32.const 14
 002241: 46                         |     i32.eq
 002242: 0d 00                      |     br_if 0
 002244: 20 02                      |     local.get 2
 002246: 41 ca 00                   |     i32.const 74
 002249: 47                         |     i32.ne
 00224a: 0d 01                      |     br_if 1
 00224c: 0b                         |   end
 00224d: 02 40                      |   block
 00224f: 20 01                      |     local.get 1
 002251: a7                         |     i32.wrap_i64
 002252: 41 ff 01                   |     i32.const 255
 002255: 71                         |     i32.and
 002256: 22 02                      |     local.tee 2
 002258: 41 0e                      |     i32.const 14
 00225a: 46                         |     i32.eq
 00225b: 0d 00                      |     br_if 0
 00225d: 20 02                      |     local.get 2
 00225f: 41 ca 00                   |     i32.const 74
 002262: 47                         |     i32.ne
 002263: 0d 01                      |     br_if 1
 002265: 0b                         |   end
 002266: 20 00                      |   local.get 0
 002268: 20 01                      |   local.get 1
 00226a: 42 01                      |   i64.const 1
 00226c: 10 a8 80 80 80 00          |   call 40
 002272: 42 02                      |   i64.const 2
 002274: 0f                         |   return
 002275: 0b                         | end
 002276: 00                         | unreachable
 002277: 0b                         | end
002279 func[88] <get_value>:
 00227a: 02 7f                      | local[1..2] type=i32
 00227c: 23 80 80 80 80 00          | global.get 0
 002282: 41 10                      | i32.const 16
 002284: 6b                         | i32.sub
 002285: 22 01                      | local.tee 1
 002287: 24 80 80 80 80 00          | global.set 0
 00228d: 02 40                      | block
 00228f: 20 00                      |   local.get 0
 002291: a7                         |   i32.wrap_i64
 002292: 41 ff 01                   |   i32.const 255
 002295: 71                         |   i32.and
 002296: 22 02                      |   local.tee 2
 002298: 41 0e                      |   i32.const 14
 00229a: 46                         |   i32.eq
 00229b: 0d 00                      |   br_if 0
 00229d: 20 02                      |   local.get 2
 00229f: 41 ca 00                   |   i32.const 74
 0022a2: 46                         |   i32.eq
 0022a3: 0d 00                      |   br_if 0
 0022a5: 00                         |   unreachable
 0022a6: 0b                         | end
 0022a7: 20 01                      | local.get 1
 0022a9: 20 00                      | local.get 0
 0022ab: 10 9c 80 80 80 00          | call 28
 0022b1: 20 01                      | local.get 1
 0022b3: 29 03 00                   | i64.load 3 0
 0022b6: 20 01                      | local.get 1
 0022b8: 29 03 08                   | i64.load 3 8
 0022bb: 10 ad 80 80 80 00          | call 45
 0022c1: 21 00                      | local.set 0
 0022c3: 20 01                      | local.get 1
 0022c5: 41 10                      | i32.const 16
 0022c7: 6a                         | i32.add
 0022c8: 24 80 80 80 80 00          | global.set 0
 0022ce: 20 00                      | local.get 0
 0022d0: 0b                         | end
0022d2 func[89] <upgrade>:
 0022d3: 02 40                      | block
 0022d5: 02 40                      |   block
 0022d7: 20 00                      |     local.get 0
 0022d9: 42 ff 01                   |     i64.const 255
 0022dc: 83                         |     i64.and
 0022dd: 42 c8 00                   |     i64.const 72
 0022e0: 52                         |     i64.ne
 0022e1: 0d 00                      |     br_if 0
 0022e3: 20 00                      |     local.get 0
 0022e5: 10 88 80 80 80 00          |     call 8 <b.8>
 0022eb: 42 80 80 80 80 70          |     i64.const 18446744069414584320
 0022f1: 83                         |     i64.and
 0022f2: 42 80 80 80 80 80 04       |     i64.const 137438953472
 0022f9: 51                         |     i64.eq
 0022fa: 0d 01                      |     br_if 1
 0022fc: 0b                         |   end
 0022fd: 00                         |   unreachable
 0022fe: 0b                         | end
 0022ff: 20 00                      | local.get 0
 002301: 10 89 80 80 80 00          | call 9 <l.6>
 002307: 1a                         | drop
 002308: 42 8e f0 b8 95 8a d5 e3 01 | i64.const 1001279865108494
 002311: 0b                         | end
002314 func[90] <initialize>:
 002315: 02 7f                      | local[3..4] type=i32
 002317: 03 7e                      | local[5..7] type=i64
 002319: 23 80 80 80 80 00          | global.get 0
 00231f: 41 20                      | i32.const 32
 002321: 6b                         | i32.sub
 002322: 22 03                      | local.tee 3
 002324: 24 80 80 80 80 00          | global.set 0
 00232a: 02 40                      | block
 00232c: 02 40                      |   block
 00232e: 20 00                      |     local.get 0
 002330: a7                         |     i32.wrap_i64
 002331: 41 ff 01                   |     i32.const 255
 002334: 71                         |     i32.and
 002335: 22 04                      |     local.tee 4
 002337: 41 0e                      |     i32.const 14
 002339: 46                         |     i32.eq
 00233a: 0d 00                      |     br_if 0
 00233c: 20 04                      |     local.get 4
 00233e: 41 ca 00                   |     i32.const 74
 002341: 47                         |     i32.ne
 002342: 0d 01                      |     br_if 1
 002344: 0b                         |   end
 002345: 02 40                      |   block
 002347: 20 01                      |     local.get 1
 002349: a7                         |     i32.wrap_i64
 00234a: 41 ff 01                   |     i32.const 255
 00234d: 71                         |     i32.and
 00234e: 22 04                      |     local.tee 4
 002350: 41 0e                      |     i32.const 14
 002352: 46                         |     i32.eq
 002353: 0d 00                      |     br_if 0
 002355: 20 04                      |     local.get 4
 002357: 41 ca 00                   |     i32.const 74
 00235a: 47                         |     i32.ne
 00235b: 0d 01                      |     br_if 1
 00235d: 0b                         |   end
 00235e: 20 03                      |   local.get 3
 002360: 20 02                      |   local.get 2
 002362: 10 9f 80 80 80 00          |   call 31
 002368: 20 03                      |   local.get 3
 00236a: 28 02 00                   |   i32.load 2 0
 00236d: 41 01                      |   i32.const 1
 00236f: 46                         |   i32.eq
 002370: 0d 00                      |   br_if 0
 002372: 20 03                      |   local.get 3
 002374: 29 03 18                   |   i64.load 3 24
 002377: 21 02                      |   local.set 2
 002379: 20 03                      |   local.get 3
 00237b: 29 03 10                   |   i64.load 3 16
 00237e: 21 05                      |   local.set 5
 002380: 02 40                      |   block
 002382: 02 40                      |     block
 002384: 41 80 80 c0 80 00          |       i32.const 1048576
 00238a: 41 04                      |       i32.const 4
 00238c: 10 b2 80 80 80 00          |       call 50
 002392: 22 06                      |       local.tee 6
 002394: 10 a9 80 80 80 00          |       call 41
 00239a: 41 ff 01                   |       i32.const 255
 00239d: 71                         |       i32.and
 00239e: 22 04                      |       local.tee 4
 0023a0: 41 02                      |       i32.const 2
 0023a2: 46                         |       i32.eq
 0023a3: 0d 00                      |       br_if 0
 0023a5: 42 8e fc a9 d3 fa 8e 9b 01 |       i64.const 682211169435150
 0023ae: 21 07                      |       local.set 7
 0023b0: 20 04                      |       local.get 4
 0023b2: 41 01                      |       i32.const 1
 0023b4: 71                         |       i32.and
 0023b5: 0d 01                      |       br_if 1
 0023b7: 0b                         |     end
 0023b8: 02 40                      |     block
 0023ba: 41 03                      |       i32.const 3
 0023bc: 41 05                      |       i32.const 5
 0023be: 41 1f                      |       i32.const 31
 0023c0: 20 05                      |       local.get 5
 0023c2: 42 e8 07                   |       i64.const 1000
 0023c5: 54                         |       i64.lt_u
 0023c6: 41 00                      |       i32.const 0
 0023c8: 20 02                      |       local.get 2
 0023ca: 50                         |       i64.eqz
 0023cb: 22 04                      |       local.tee 4
 0023cd: 1b                         |       select
 0023ce: 1b                         |       select
 0023cf: 20 05                      |       local.get 5
 0023d1: 50                         |       i64.eqz
 0023d2: 20 02                      |       local.get 2
 0023d4: 42 00                      |       i64.const 0
 0023d6: 53                         |       i64.lt_s
 0023d7: 20 04                      |       local.get 4
 0023d9: 1b                         |       select
 0023da: 1b                         |       select
 0023db: 22 04                      |       local.tee 4
 0023dd: 41 1f                      |       i32.const 31
 0023df: 46                         |       i32.eq
 0023e0: 0d 00                      |       br_if 0
 0023e2: 20 04                      |       local.get 4
 0023e4: 41 03                      |       i32.const 3
 0023e6: 74                         |       i32.shl
 0023e7: 41 98 84 c0 80 00          |       i32.const 1049112
 0023ed: 6a                         |       i32.add
 0023ee: 29 03 00                   |       i64.load 3 0
 0023f1: 21 07                      |       local.set 7
 0023f3: 0c 01                      |       br 1
 0023f5: 0b                         |     end
 0023f6: 20 06                      |     local.get 6
 0023f8: 10 aa 80 80 80 00          |     call 42
 0023fe: 41 84 80 c0 80 00          |     i32.const 1048580
 002404: 41 02                      |     i32.const 2
 002406: 10 b2 80 80 80 00          |     call 50
 00240c: 20 00                      |     local.get 0
 00240e: 10 ab 80 80 80 00          |     call 43
 002414: 41 86 80 c0 80 00          |     i32.const 1048582
 00241a: 41 06                      |     i32.const 6
 00241c: 10 b2 80 80 80 00          |     call 50
 002422: 20 01                      |     local.get 1
 002424: 10 ab 80 80 80 00          |     call 43
 00242a: 41 8c 80 c0 80 00          |     i32.const 1048588
 002430: 41 06                      |     i32.const 6
 002432: 10 b2 80 80 80 00          |     call 50
 002438: 20 05                      |     local.get 5
 00243a: 20 02                      |     local.get 2
 00243c: 10 ac 80 80 80 00          |     call 44
 002442: 10 b6 80 80 80 00          |     call 54
 002448: 42 8e f0 b8 95 8a d5 e3 01 |     i64.const 1001279865108494
 002451: 21 07                      |     local.set 7
 002453: 0b                         |   end
 002454: 20 03                      |   local.get 3
 002456: 41 20                      |   i32.const 32
 002458: 6a                         |   i32.add
 002459: 24 80 80 80 80 00          |   global.set 0
 00245f: 20 07                      |   local.get 7
 002461: 0f                         |   return
 002462: 0b                         | end
 002463: 00                         | unreachable
 002464: 0b                         | end
002467 func[91] <initialize_with_roles>:
 002468: 02 7f                      | local[5..6] type=i32
 00246a: 02 7e                      | local[7..8] type=i64
 00246c: 23 80 80 80 80 00          | global.get 0
 002472: 41 30                      | i32.const 48
 002474: 6b                         | i32.sub
 002475: 22 05                      | local.tee 5
 002477: 24 80 80 80 80 00          | global.set 0
 00247d: 02 40                      | block
 00247f: 02 40                      |   block
 002481: 02 40                      |     block
 002483: 20 00                      |       local.get 0
 002485: a7                         |       i32.wrap_i64
 002486: 41 ff 01                   |       i32.const 255
 002489: 71                         |       i32.and
 00248a: 22 06                      |       local.tee 6
 00248c: 41 0e                      |       i32.const 14
 00248e: 46                         |       i32.eq
 00248f: 0d 00                      |       br_if 0
 002491: 20 06                      |       local.get 6
 002493: 41 ca 00                   |       i32.const 74
 002496: 47                         |       i32.ne
 002497: 0d 01                      |       br_if 1
 002499: 0b                         |     end
 00249a: 02 40                      |     block
 00249c: 20 01                      |       local.get 1
 00249e: a7                         |       i32.wrap_i64
 00249f: 41 ff 01                   |       i32.const 255
 0024a2: 71                         |       i32.and
 0024a3: 22 06                      |       local.tee 6
 0024a5: 41 0e                      |       i32.const 14
 0024a7: 46                         |       i32.eq
 0024a8: 0d 00                      |       br_if 0
 0024aa: 20 06                      |       local.get 6
 0024ac: 41 ca 00                   |       i32.const 74
 0024af: 47                         |       i32.ne
 0024b0: 0d 01                      |       br_if 1
 0024b2: 0b                         |     end
 0024b3: 20 05                      |     local.get 5
 0024b5: 20 02                      |     local.get 2
 0024b7: 10 9f 80 80 80 00          |     call 31
 0024bd: 20 05                      |     local.get 5
 0024bf: 28 02 00                   |     i32.load 2 0
 0024c2: 41 01                      |     i32.const 1
 0024c4: 46                         |     i32.eq
 0024c5: 0d 00                      |     br_if 0
 0024c7: 20 03                      |     local.get 3
 0024c9: 42 ff 01                   |     i64.const 255
 0024cc: 83                         |     i64.and
 0024cd: 42 cd 00                   |     i64.const 77
 0024d0: 52                         |     i64.ne
 0024d1: 0d 00                      |     br_if 0
 0024d3: 20 04                      |     local.get 4
 0024d5: 42 ff 01                   |     i64.const 255
 0024d8: 83                         |     i64.and
 0024d9: 42 cd 00                   |     i64.const 77
 0024dc: 52                         |     i64.ne
 0024dd: 0d 00                      |     br_if 0
 0024df: 20 05                      |     local.get 5
 0024e1: 29 03 18                   |     i64.load 3 24
 0024e4: 21 02                      |     local.set 2
 0024e6: 20 05                      |     local.get 5
 0024e8: 29 03 10                   |     i64.load 3 16
 0024eb: 21 07                      |     local.set 7
 0024ed: 20 05                      |     local.get 5
 0024ef: 20 03                      |     local.get 3
 0024f1: 37 03 28                   |     i64.store 3 40
 0024f4: 02 40                      |     block
 0024f6: 02 40                      |       block
 0024f8: 41 80 80 c0 80 00          |         i32.const 1048576
 0024fe: 41 04                      |         i32.const 4
 002500: 10 b2 80 80 80 00          |         call 50
 002506: 22 08                      |         local.tee 8
 002508: 10 a9 80 80 80 00          |         call 41
 00250e: 41 ff 01                   |         i32.const 255
 002511: 71                         |         i32.and
 002512: 22 06                      |         local.tee 6
 002514: 41 02                      |         i32.const 2
 002516: 46                         |         i32.eq
 002517: 0d 00                      |         br_if 0
 002519: 42 8e fc a9 d3 fa 8e 9b 01 |         i64.const 682211169435150
 002522: 21 03                      |         local.set 3
 002524: 20 06                      |         local.get 6
 002526: 41 01                      |         i32.const 1
 002528: 71                         |         i32.and
 002529: 0d 01                      |         br_if 1
 00252b: 0b                         |       end
 00252c: 41 90 86 c0 80 00          |       i32.const 1049360
 002532: 10 dc 80 80 80 00          |       call 92
 002538: 42 02                      |       i64.const 2
 00253a: 10 9d 80 80 80 00          |       call 29
 002540: 0d 02                      |       br_if 2
 002542: 41 90 86 c0 80 00          |       i32.const 1049360
 002548: 10 dc 80 80 80 00          |       call 92
 00254e: 20 04                      |       local.get 4
 002550: 42 02                      |       i64.const 2
 002552: 10 83 80 80 80 00          |       call 3 <l._>
 002558: 1a                         |       drop
 002559: 20 05                      |       local.get 5
 00255b: 42 8e ba da 8f d3 83 ed 34 |       i64.const 29752910039915790
 002564: 37 03 00                   |       i64.store 3 0
 002567: 20 04                      |       local.get 4
 002569: 20 05                      |       local.get 5
 00256b: 41 28                      |       i32.const 40
 00256d: 6a                         |       i32.add
 00256e: 20 05                      |       local.get 5
 002570: 10 dd 80 80 80 00          |       call 93
 002576: 02 40                      |       block
 002578: 41 03                      |         i32.const 3
 00257a: 41 05                      |         i32.const 5
 00257c: 41 1f                      |         i32.const 31
 00257e: 20 07                      |         local.get 7
 002580: 42 e8 07                   |         i64.const 1000
 002583: 54                         |         i64.lt_u
 002584: 41 00                      |         i32.const 0
 002586: 20 02                      |         local.get 2
 002588: 50                         |         i64.eqz
 002589: 22 06                      |         local.tee 6
 00258b: 1b                         |         select
 00258c: 1b                         |         select
 00258d: 20 07                      |         local.get 7
 00258f: 50                         |         i64.eqz
 002590: 20 02                      |         local.get 2
 002592: 42 00                      |         i64.const 0
 002594: 53                         |         i64.lt_s
 002595: 20 06                      |         local.get 6
 002597: 1b                         |         select
 002598: 1b                         |         select
 002599: 22 06                      |         local.tee 6
 00259b: 41 1f                      |         i32.const 31
 00259d: 46                         |         i32.eq
 00259e: 0d 00                      |         br_if 0
 0025a0: 20 06                      |         local.get 6
 0025a2: 41 03                      |         i32.const 3
 0025a4: 74                         |         i32.shl
 0025a5: 41 98 84 c0 80 00          |         i32.const 1049112
 0025ab: 6a                         |         i32.add
 0025ac: 29 03 00                   |         i64.load 3 0
 0025af: 21 03                      |         local.set 3
 0025b1: 0c 01                      |         br 1
 0025b3: 0b                         |       end
 0025b4: 20 08                      |       local.get 8
 0025b6: 10 aa 80 80 80 00          |       call 42
 0025bc: 41 84 80 c0 80 00          |       i32.const 1048580
 0025c2: 41 02                      |       i32.const 2
 0025c4: 10 b2 80 80 80 00          |       call 50
 0025ca: 20 00                      |       local.get 0
 0025cc: 10 ab 80 80 80 00          |       call 43
 0025d2: 41 86 80 c0 80 00          |       i32.const 1048582
 0025d8: 41 06                      |       i32.const 6
 0025da: 10 b2 80 80 80 00          |       call 50
 0025e0: 20 01                      |       local.get 1
 0025e2: 10 ab 80 80 80 00          |       call 43
 0025e8: 41 8c 80 c0 80 00          |       i32.const 1048588
 0025ee: 41 06                      |       i32.const 6
 0025f0: 10 b2 80 80 80 00          |       call 50
 0025f6: 20 07                      |       local.get 7
 0025f8: 20 02                      |       local.get 2
 0025fa: 10 ac 80 80 80 00          |       call 44
 002600: 10 b6 80 80 80 00          |       call 54
 002606: 42 8e f0 b8 95 8a d5 e3 01 |       i64.const 1001279865108494
 00260f: 21 03                      |       local.set 3
 002611: 0b                         |     end
 002612: 20 05                      |     local.get 5
 002614: 41 30                      |     i32.const 48
 002616: 6a                         |     i32.add
 002617: 24 80 80 80 80 00          |     global.set 0
 00261d: 20 03                      |     local.get 3
 00261f: 0f                         |     return
 002620: 0b                         |   end
 002621: 00                         |   unreachable
 002622: 0b                         | end
 002623: 42 83 80 80 80 80 98 01    | i64.const 5222680231939
 00262b: 10 de 80 80 80 00          | call 94
 002631: 00                         | unreachable
 002632: 0b                         | end
002635 func[92]:
 002636: 01 7f                      | local[1] type=i32
 002638: 02 7e                      | local[2..3] type=i64
 00263a: 23 80 80 80 80 00          | global.get 0
 002640: 41 20                      | i32.const 32
 002642: 6b                         | i32.sub
 002643: 22 01                      | local.tee 1
 002645: 24 80 80 80 80 00          | global.set 0
 00264b: 02 40                      | block
 00264d: 02 40                      |   block
 00264f: 02 40                      |     block
 002651: 02 40                      |       block
 002653: 02 40                      |         block
 002655: 02 40                      |           block
 002657: 02 40                      |             block
 002659: 02 40                      |               block
 00265b: 02 40                      |                 block
 00265d: 20 00                      |                   local.get 0
 00265f: 28 02 00                   |                   i32.load 2 0
 002662: 0e 06 00 01 02 03 04 05 00 |                   br_table 0 1 2 3 4 5 0
 00266b: 0b                         |                 end
 00266c: 20 01                      |                 local.get 1
 00266e: 41 08                      |                 i32.const 8
 002670: 6a                         |                 i32.add
 002671: 41 c4 87 c0 80 00          |                 i32.const 1049540
 002677: 41 0c                      |                 i32.const 12
 002679: 10 b2 81 80 80 00          |                 call 178
 00267f: 20 01                      |                 local.get 1
 002681: 28 02 08                   |                 i32.load 2 8
 002684: 0d 06                      |                 br_if 6
 002686: 20 01                      |                 local.get 1
 002688: 29 03 10                   |                 i64.load 3 16
 00268b: 21 02                      |                 local.set 2
 00268d: 20 00                      |                 local.get 0
 00268f: 35 02 10                   |                 i64.load32_u 2 16
 002692: 21 03                      |                 local.set 3
 002694: 20 01                      |                 local.get 1
 002696: 20 00                      |                 local.get 0
 002698: 29 03 08                   |                 i64.load 3 8
 00269b: 37 03 10                   |                 i64.store 3 16
 00269e: 20 01                      |                 local.get 1
 0026a0: 20 03                      |                 local.get 3
 0026a2: 42 20                      |                 i64.const 32
 0026a4: 86                         |                 i64.shl
 0026a5: 42 04                      |                 i64.const 4
 0026a7: 84                         |                 i64.or
 0026a8: 37 03 08                   |                 i64.store 3 8
 0026ab: 20 01                      |                 local.get 1
 0026ad: 41 08                      |                 i32.const 8
 0026af: 6a                         |                 i32.add
 0026b0: 20 02                      |                 local.get 2
 0026b2: 41 b4 87 c0 80 00          |                 i32.const 1049524
 0026b8: ad                         |                 i64.extend_i32_u
 0026b9: 42 20                      |                 i64.const 32
 0026bb: 86                         |                 i64.shl
 0026bc: 42 04                      |                 i64.const 4
 0026be: 84                         |                 i64.or
 0026bf: 20 01                      |                 local.get 1
 0026c1: 41 08                      |                 i32.const 8
 0026c3: 6a                         |                 i32.add
 0026c4: ad                         |                 i64.extend_i32_u
 0026c5: 42 20                      |                 i64.const 32
 0026c7: 86                         |                 i64.shl
 0026c8: 42 04                      |                 i64.const 4
 0026ca: 84                         |                 i64.or
 0026cb: 42 84 80 80 80 20          |                 i64.const 8589934596
 0026d1: 10 99 80 80 80 00          |                 call 25 <m.9>
 0026d7: 10 b1 81 80 80 00          |                 call 177
 0026dd: 0c 05                      |                 br 5
 0026df: 0b                         |               end
 0026e0: 20 01                      |               local.get 1
 0026e2: 41 08                      |               i32.const 8
 0026e4: 6a                         |               i32.add
 0026e5: 41 d0 87 c0 80 00          |               i32.const 1049552
 0026eb: 41 07                      |               i32.const 7
 0026ed: 10 b2 81 80 80 00          |               call 178
 0026f3: 20 01                      |               local.get 1
 0026f5: 28 02 08                   |               i32.load 2 8
 0026f8: 0d 05                      |               br_if 5
 0026fa: 20 01                      |               local.get 1
 0026fc: 29 03 10                   |               i64.load 3 16
 0026ff: 21 02                      |               local.set 2
 002701: 20 00                      |               local.get 0
 002703: 29 03 08                   |               i64.load 3 8
 002706: 21 03                      |               local.set 3
 002708: 20 01                      |               local.get 1
 00270a: 20 00                      |               local.get 0
 00270c: 29 03 10                   |               i64.load 3 16
 00270f: 37 03 18                   |               i64.store 3 24
 002712: 20 01                      |               local.get 1
 002714: 20 03                      |               local.get 3
 002716: 37 03 10                   |               i64.store 3 16
 002719: 20 01                      |               local.get 1
 00271b: 20 02                      |               local.get 2
 00271d: 37 03 08                   |               i64.store 3 8
 002720: 20 01                      |               local.get 1
 002722: 41 08                      |               i32.const 8
 002724: 6a                         |               i32.add
 002725: 41 03                      |               i32.const 3
 002727: 10 b0 80 80 80 00          |               call 48
 00272d: 21 02                      |               local.set 2
 00272f: 0c 06                      |               br 6
 002731: 0b                         |             end
 002732: 20 01                      |             local.get 1
 002734: 41 08                      |             i32.const 8
 002736: 6a                         |             i32.add
 002737: 41 d7 87 c0 80 00          |             i32.const 1049559
 00273d: 41 11                      |             i32.const 17
 00273f: 10 b2 81 80 80 00          |             call 178
 002745: 20 01                      |             local.get 1
 002747: 28 02 08                   |             i32.load 2 8
 00274a: 0d 04                      |             br_if 4
 00274c: 20 01                      |             local.get 1
 00274e: 41 08                      |             i32.const 8
 002750: 6a                         |             i32.add
 002751: 20 01                      |             local.get 1
 002753: 29 03 10                   |             i64.load 3 16
 002756: 20 00                      |             local.get 0
 002758: 29 03 08                   |             i64.load 3 8
 00275b: 10 b1 81 80 80 00          |             call 177
 002761: 0c 03                      |             br 3
 002763: 0b                         |           end
 002764: 20 01                      |           local.get 1
 002766: 41 08                      |           i32.const 8
 002768: 6a                         |           i32.add
 002769: 41 e8 87 c0 80 00          |           i32.const 1049576
 00276f: 41 09                      |           i32.const 9
 002771: 10 b2 81 80 80 00          |           call 178
 002777: 20 01                      |           local.get 1
 002779: 28 02 08                   |           i32.load 2 8
 00277c: 0d 03                      |           br_if 3
 00277e: 20 01                      |           local.get 1
 002780: 41 08                      |           i32.const 8
 002782: 6a                         |           i32.add
 002783: 20 01                      |           local.get 1
 002785: 29 03 10                   |           i64.load 3 16
 002788: 20 00                      |           local.get 0
 00278a: 29 03 08                   |           i64.load 3 8
 00278d: 10 b1 81 80 80 00          |           call 177
 002793: 0c 02                      |           br 2
 002795: 0b                         |         end
 002796: 20 01                      |         local.get 1
 002798: 41 08                      |         i32.const 8
 00279a: 6a                         |         i32.add
 00279b: 41 f1 87 c0 80 00          |         i32.const 1049585
 0027a1: 41 05                      |         i32.const 5
 0027a3: 10 b2 81 80 80 00          |         call 178
 0027a9: 20 01                      |         local.get 1
 0027ab: 28 02 08                   |         i32.load 2 8
 0027ae: 0d 02                      |         br_if 2
 0027b0: 20 01                      |         local.get 1
 0027b2: 41 08                      |         i32.const 8
 0027b4: 6a                         |         i32.add
 0027b5: 20 01                      |         local.get 1
 0027b7: 29 03 10                   |         i64.load 3 16
 0027ba: 10 b4 81 80 80 00          |         call 180
 0027c0: 0c 01                      |         br 1
 0027c2: 0b                         |       end
 0027c3: 20 01                      |       local.get 1
 0027c5: 41 08                      |       i32.const 8
 0027c7: 6a                         |       i32.add
 0027c8: 41 f6 87 c0 80 00          |       i32.const 1049590
 0027ce: 41 0c                      |       i32.const 12
 0027d0: 10 b2 81 80 80 00          |       call 178
 0027d6: 20 01                      |       local.get 1
 0027d8: 28 02 08                   |       i32.load 2 8
 0027db: 0d 01                      |       br_if 1
 0027dd: 20 01                      |       local.get 1
 0027df: 41 08                      |       i32.const 8
 0027e1: 6a                         |       i32.add
 0027e2: 20 01                      |       local.get 1
 0027e4: 29 03 10                   |       i64.load 3 16
 0027e7: 10 b4 81 80 80 00          |       call 180
 0027ed: 0b                         |     end
 0027ee: 20 01                      |     local.get 1
 0027f0: 29 03 10                   |     i64.load 3 16
 0027f3: 21 02                      |     local.set 2
 0027f5: 20 01                      |     local.get 1
 0027f7: 29 03 08                   |     i64.load 3 8
 0027fa: 50                         |     i64.eqz
 0027fb: 0d 01                      |     br_if 1
 0027fd: 0b                         |   end
 0027fe: 00                         |   unreachable
 0027ff: 0b                         | end
 002800: 20 01                      | local.get 1
 002802: 41 20                      | i32.const 32
 002804: 6a                         | i32.add
 002805: 24 80 80 80 80 00          | global.set 0
 00280b: 20 02                      | local.get 2
 00280d: 0b                         | end
002810 func[93]:
 002811: 01 7f                      | local[3] type=i32
 002813: 02 7e                      | local[4..5] type=i64
 002815: 02 7f                      | local[6..7] type=i32
 002817: 23 80 80 80 80 00          | global.get 0
 00281d: 41 e0 00                   | i32.const 96
 002820: 6b                         | i32.sub
 002821: 22 03                      | local.tee 3
 002823: 24 80 80 80 80 00          | global.set 0
 002829: 20 03                      | local.get 3
 00282b: 41 10                      | i32.const 16
 00282d: 6a                         | i32.add
 00282e: 20 01                      | local.get 1
 002830: 29 03 00                   | i64.load 3 0
 002833: 22 04                      | local.tee 4
 002835: 20 02                      | local.get 2
 002837: 29 03 00                   | i64.load 3 0
 00283a: 22 05                      | local.tee 5
 00283c: 10 cf 80 80 80 00          | call 79
 002842: 02 40                      | block
 002844: 02 40                      |   block
 002846: 20 03                      |     local.get 3
 002848: 28 02 10                   |     i32.load 2 16
 00284b: 0d 00                      |     br_if 0
 00284d: 20 03                      |     local.get 3
 00284f: 42 02                      |     i64.const 2
 002851: 37 03 18                   |     i64.store 3 24
 002854: 20 03                      |     local.get 3
 002856: 20 05                      |     local.get 5
 002858: 37 03 20                   |     i64.store 3 32
 00285b: 20 03                      |     local.get 3
 00285d: 41 08                      |     i32.const 8
 00285f: 6a                         |     i32.add
 002860: 20 03                      |     local.get 3
 002862: 41 18                      |     i32.const 24
 002864: 6a                         |     i32.add
 002865: 10 95 81 80 80 00          |     call 149
 00286b: 20 03                      |     local.get 3
 00286d: 28 02 0c                   |     i32.load 2 12
 002870: 21 06                      |     local.set 6
 002872: 20 03                      |     local.get 3
 002874: 28 02 08                   |     i32.load 2 8
 002877: 21 07                      |     local.set 7
 002879: 20 03                      |     local.get 3
 00287b: 20 05                      |     local.get 5
 00287d: 37 03 38                   |     i64.store 3 56
 002880: 20 03                      |     local.get 3
 002882: 42 00                      |     i64.const 0
 002884: 37 03 30                   |     i64.store 3 48
 002887: 20 03                      |     local.get 3
 002889: 20 06                      |     local.get 6
 00288b: 41 00                      |     i32.const 0
 00288d: 20 07                      |     local.get 7
 00288f: 41 01                      |     i32.const 1
 002891: 71                         |     i32.and
 002892: 1b                         |     select
 002893: 22 06                      |     local.tee 6
 002895: 36 02 40                   |     i32.store 2 64
 002898: 20 03                      |     local.get 3
 00289a: 41 30                      |     i32.const 48
 00289c: 6a                         |     i32.add
 00289d: 20 04                      |     local.get 4
 00289f: 10 b6 81 80 80 00          |     call 182
 0028a5: 20 03                      |     local.get 3
 0028a7: 20 05                      |     local.get 5
 0028a9: 37 03 58                   |     i64.store 3 88
 0028ac: 20 03                      |     local.get 3
 0028ae: 20 04                      |     local.get 4
 0028b0: 37 03 50                   |     i64.store 3 80
 0028b3: 20 03                      |     local.get 3
 0028b5: 42 01                      |     i64.const 1
 0028b7: 37 03 48                   |     i64.store 3 72
 0028ba: 20 03                      |     local.get 3
 0028bc: 41 c8 00                   |     i32.const 72
 0028bf: 6a                         |     i32.add
 0028c0: 20 06                      |     local.get 6
 0028c2: 10 b5 81 80 80 00          |     call 181
 0028c8: 20 06                      |     local.get 6
 0028ca: 41 01                      |     i32.const 1
 0028cc: 6a                         |     i32.add
 0028cd: 22 06                      |     local.tee 6
 0028cf: 45                         |     i32.eqz
 0028d0: 0d 01                      |     br_if 1
 0028d2: 20 03                      |     local.get 3
 0028d4: 41 18                      |     i32.const 24
 0028d6: 6a                         |     i32.add
 0028d7: 20 06                      |     local.get 6
 0028d9: 10 b5 81 80 80 00          |     call 181
 0028df: 41 c0 86 c0 80 00          |     i32.const 1049408
 0028e5: 41 0c                      |     i32.const 12
 0028e7: 10 cd 80 80 80 00          |     call 77
 0028ed: 21 05                      |     local.set 5
 0028ef: 20 03                      |     local.get 3
 0028f1: 20 01                      |     local.get 1
 0028f3: 36 02 54                   |     i32.store 2 84
 0028f6: 20 03                      |     local.get 3
 0028f8: 20 02                      |     local.get 2
 0028fa: 36 02 50                   |     i32.store 2 80
 0028fd: 20 03                      |     local.get 3
 0028ff: 20 05                      |     local.get 5
 002901: 37 03 48                   |     i64.store 3 72
 002904: 20 03                      |     local.get 3
 002906: 41 c8 00                   |     i32.const 72
 002909: 6a                         |     i32.add
 00290a: 10 b7 81 80 80 00          |     call 183
 002910: 20 00                      |     local.get 0
 002912: 10 8c 80 80 80 00          |     call 12 <x.1>
 002918: 1a                         |     drop
 002919: 0b                         |   end
 00291a: 20 03                      |   local.get 3
 00291c: 41 e0 00                   |   i32.const 96
 00291f: 6a                         |   i32.add
 002920: 24 80 80 80 80 00          |   global.set 0
 002926: 0f                         |   return
 002927: 0b                         | end
 002928: 10 c1 80 80 80 00          | call 65
 00292e: 00                         | unreachable
 00292f: 0b                         | end
002931 func[94]:
 002932: 20 00                      | local.get 0
 002934: 10 97 80 80 80 00          | call 23 <x.5>
 00293a: 1a                         | drop
 00293b: 0b                         | end
00293d func[95] <is_initialized>:
 00293e: 41 80 80 c0 80 00          | i32.const 1048576
 002944: 41 04                      | i32.const 4
 002946: 10 b2 80 80 80 00          | call 50
 00294c: 10 a9 80 80 80 00          | call 41
 002952: 41 fd 01                   | i32.const 253
 002955: 71                         | i32.and
 002956: ad                         | i64.extend_i32_u
 002957: 0b                         | end
002959 func[96] <get_id>:
 00295a: 01 7f                      | local[0] type=i32
 00295c: 01 7e                      | local[1] type=i64
 00295e: 23 80 80 80 80 00          | global.get 0
 002964: 41 10                      | i32.const 16
 002966: 6b                         | i32.sub
 002967: 22 00                      | local.tee 0
 002969: 24 80 80 80 80 00          | global.set 0
 00296f: 20 00                      | local.get 0
 002971: 41 84 80 c0 80 00          | i32.const 1048580
 002977: 41 02                      | i32.const 2
 002979: 10 b9 80 80 80 00          | call 57
 00297f: 20 00                      | local.get 0
 002981: 29 03 00                   | i64.load 3 0
 002984: 20 00                      | local.get 0
 002986: 29 03 08                   | i64.load 3 8
 002989: 10 ad 80 80 80 00          | call 45
 00298f: 21 01                      | local.set 1
 002991: 20 00                      | local.get 0
 002993: 41 10                      | i32.const 16
 002995: 6a                         | i32.add
 002996: 24 80 80 80 80 00          | global.set 0
 00299c: 20 01                      | local.get 1
 00299e: 0b                         | end
0029a0 func[97] <get_issuer_name>:
 0029a1: 01 7f                      | local[0] type=i32
 0029a3: 01 7e                      | local[1] type=i64
 0029a5: 23 80 80 80 80 00          | global.get 0
 0029ab: 41 10                      | i32.const 16
 0029ad: 6b                         | i32.sub
 0029ae: 22 00                      | local.tee 0
 0029b0: 24 80 80 80 80 00          | global.set 0
 0029b6: 20 00                      | local.get 0
 0029b8: 41 86 80 c0 80 00          | i32.const 1048582
 0029be: 41 06                      | i32.const 6
 0029c0: 10 b9 80 80 80 00          | call 57
 0029c6: 20 00                      | local.get 0
 0029c8: 29 03 00                   | i64.load 3 0
 0029cb: 20 00                      | local.get 0
 0029cd: 29 03 08                   | i64.load 3 8
 0029d0: 10 ad 80 80 80 00          | call 45
 0029d6: 21 01                      | local.set 1
 0029d8: 20 00                      | local.get 0
 0029da: 41 10                      | i32.const 16
 0029dc: 6a                         | i32.add
 0029dd: 24 80 80 80 80 00          | global.set 0
 0029e3: 20 01                      | local.get 1
 0029e5: 0b                         | end
0029e7 func[98] <get_volume>:
 0029e8: 01 7f                      | local[0] type=i32
 0029ea: 01 7e                      | local[1] type=i64
 0029ec: 23 80 80 80 80 00          | global.get 0
 0029f2: 41 10                      | i32.const 16
 0029f4: 6b                         | i32.sub
 0029f5: 22 00                      | local.tee 0
 0029f7: 24 80 80 80 80 00          | global.set 0
 0029fd: 20 00                      | local.get 0
 0029ff: 41 8c 80 c0 80 00          | i32.const 1048588
 002a05: 41 06                      | i32.const 6
 002a07: 10 b7 80 80 80 00          | call 55
 002a0d: 20 00                      | local.get 0
 002a0f: 29 03 00                   | i64.load 3 0
 002a12: 20 00                      | local.get 0
 002a14: 29 03 08                   | i64.load 3 8
 002a17: 10 a7 80 80 80 00          | call 39
 002a1d: 21 01                      | local.set 1
 002a1f: 20 00                      | local.get 0
 002a21: 41 10                      | i32.const 16
 002a23: 6a                         | i32.add
 002a24: 24 80 80 80 80 00          | global.set 0
 002a2a: 20 01                      | local.get 1
 002a2c: 0b                         | end
002a2e func[99] <operator_only_function>:
 002a2f: 02 40                      | block
 002a31: 20 00                      |   local.get 0
 002a33: 42 ff 01                   |   i64.const 255
 002a36: 83                         |   i64.and
 002a37: 42 cd 00                   |   i64.const 77
 002a3a: 52                         |   i64.ne
 002a3b: 0d 00                      |   br_if 0
 002a3d: 20 01                      |   local.get 1
 002a3f: 42 ff 01                   |   i64.const 255
 002a42: 83                         |   i64.and
 002a43: 42 c9 00                   |   i64.const 73
 002a46: 52                         |   i64.ne
 002a47: 0d 00                      |   br_if 0
 002a49: 02 40                      |   block
 002a4b: 20 00                      |     local.get 0
 002a4d: 10 ce 80 80 80 00          |     call 78
 002a53: 0d 00                      |     br_if 0
 002a55: 41 8b 84 c0 80 00          |     i32.const 1049099
 002a5b: 41 06                      |     i32.const 6
 002a5d: 10 d6 80 80 80 00          |     call 86
 002a63: 21 01                      |     local.set 1
 002a65: 0b                         |   end
 002a66: 20 01                      |   local.get 1
 002a68: 0f                         |   return
 002a69: 0b                         | end
 002a6a: 00                         | unreachable
 002a6b: 0b                         | end
002a6e func[100] <add_debit_detailed>:
 002a6f: 02 7f                      | local[7..8] type=i32
 002a71: 04 7e                      | local[9..12] type=i64
 002a73: 23 80 80 80 80 00          | global.get 0
 002a79: 41 20                      | i32.const 32
 002a7b: 6b                         | i32.sub
 002a7c: 22 07                      | local.tee 7
 002a7e: 24 80 80 80 80 00          | global.set 0
 002a84: 02 40                      | block
 002a86: 02 40                      |   block
 002a88: 20 00                      |     local.get 0
 002a8a: 42 ff 01                   |     i64.const 255
 002a8d: 83                         |     i64.and
 002a8e: 42 cd 00                   |     i64.const 77
 002a91: 52                         |     i64.ne
 002a92: 0d 00                      |     br_if 0
 002a94: 02 40                      |     block
 002a96: 20 01                      |       local.get 1
 002a98: a7                         |       i32.wrap_i64
 002a99: 41 ff 01                   |       i32.const 255
 002a9c: 71                         |       i32.and
 002a9d: 22 08                      |       local.tee 8
 002a9f: 41 0e                      |       i32.const 14
 002aa1: 46                         |       i32.eq
 002aa2: 0d 00                      |       br_if 0
 002aa4: 20 08                      |       local.get 8
 002aa6: 41 ca 00                   |       i32.const 74
 002aa9: 47                         |       i32.ne
 002aaa: 0d 01                      |       br_if 1
 002aac: 0b                         |     end
 002aad: 20 07                      |     local.get 7
 002aaf: 20 02                      |     local.get 2
 002ab1: 10 9f 80 80 80 00          |     call 31
 002ab7: 20 07                      |     local.get 7
 002ab9: 28 02 00                   |     i32.load 2 0
 002abc: 41 01                      |     i32.const 1
 002abe: 46                         |     i32.eq
 002abf: 0d 00                      |     br_if 0
 002ac1: 20 07                      |     local.get 7
 002ac3: 29 03 18                   |     i64.load 3 24
 002ac6: 21 02                      |     local.set 2
 002ac8: 20 07                      |     local.get 7
 002aca: 29 03 10                   |     i64.load 3 16
 002acd: 21 09                      |     local.set 9
 002acf: 20 07                      |     local.get 7
 002ad1: 20 03                      |     local.get 3
 002ad3: 10 9f 80 80 80 00          |     call 31
 002ad9: 20 07                      |     local.get 7
 002adb: 28 02 00                   |     i32.load 2 0
 002ade: 41 01                      |     i32.const 1
 002ae0: 46                         |     i32.eq
 002ae1: 0d 00                      |     br_if 0
 002ae3: 20 07                      |     local.get 7
 002ae5: 29 03 18                   |     i64.load 3 24
 002ae8: 21 03                      |     local.set 3
 002aea: 20 07                      |     local.get 7
 002aec: 29 03 10                   |     i64.load 3 16
 002aef: 21 0a                      |     local.set 10
 002af1: 20 07                      |     local.get 7
 002af3: 20 04                      |     local.get 4
 002af5: 10 9f 80 80 80 00          |     call 31
 002afb: 20 07                      |     local.get 7
 002afd: 28 02 00                   |     i32.load 2 0
 002b00: 41 01                      |     i32.const 1
 002b02: 46                         |     i32.eq
 002b03: 0d 00                      |     br_if 0
 002b05: 20 07                      |     local.get 7
 002b07: 29 03 18                   |     i64.load 3 24
 002b0a: 21 04                      |     local.set 4
 002b0c: 20 07                      |     local.get 7
 002b0e: 29 03 10                   |     i64.load 3 16
 002b11: 21 0b                      |     local.set 11
 002b13: 20 07                      |     local.get 7
 002b15: 20 05                      |     local.get 5
 002b17: 10 9f 80 80 80 00          |     call 31
 002b1d: 20 07                      |     local.get 7
 002b1f: 28 02 00                   |     i32.load 2 0
 002b22: 41 01                      |     i32.const 1
 002b24: 46                         |     i32.eq
 002b25: 0d 00                      |     br_if 0
 002b27: 20 07                      |     local.get 7
 002b29: 29 03 18                   |     i64.load 3 24
 002b2c: 21 05                      |     local.set 5
 002b2e: 20 07                      |     local.get 7
 002b30: 29 03 10                   |     i64.load 3 16
 002b33: 21 0c                      |     local.set 12
 002b35: 20 07                      |     local.get 7
 002b37: 20 06                      |     local.get 6
 002b39: 10 9b 80 80 80 00          |     call 27
 002b3f: 20 07                      |     local.get 7
 002b41: 28 02 00                   |     i32.load 2 0
 002b44: 41 01                      |     i32.const 1
 002b46: 46                         |     i32.eq
 002b47: 0d 00                      |     br_if 0
 002b49: 20 07                      |     local.get 7
 002b4b: 29 03 08                   |     i64.load 3 8
 002b4e: 21 06                      |     local.set 6
 002b50: 02 40                      |     block
 002b52: 02 40                      |       block
 002b54: 20 00                      |         local.get 0
 002b56: 10 ce 80 80 80 00          |         call 78
 002b5c: 0d 00                      |         br_if 0
 002b5e: 42 8e da b9 dd b9 d6 03    |         i64.const 16164573834510
 002b66: 21 00                      |         local.set 0
 002b68: 0c 01                      |         br 1
 002b6a: 0b                         |       end
 002b6b: 02 40                      |       block
 002b6d: 20 09                      |         local.get 9
 002b6f: 20 02                      |         local.get 2
 002b71: 20 0a                      |         local.get 10
 002b73: 20 03                      |         local.get 3
 002b75: 20 0b                      |         local.get 11
 002b77: 20 04                      |         local.get 4
 002b79: 20 0c                      |         local.get 12
 002b7b: 20 05                      |         local.get 5
 002b7d: 10 d4 80 80 80 00          |         call 84
 002b83: 41 ff 01                   |         i32.const 255
 002b86: 71                         |         i32.and
 002b87: 22 08                      |         local.tee 8
 002b89: 41 1f                      |         i32.const 31
 002b8b: 46                         |         i32.eq
 002b8c: 0d 00                      |         br_if 0
 002b8e: 20 08                      |         local.get 8
 002b90: 41 03                      |         i32.const 3
 002b92: 74                         |         i32.shl
 002b93: 41 98 84 c0 80 00          |         i32.const 1049112
 002b99: 6a                         |         i32.add
 002b9a: 29 03 00                   |         i64.load 3 0
 002b9d: 21 00                      |         local.set 0
 002b9f: 0c 01                      |         br 1
 002ba1: 0b                         |       end
 002ba2: 02 40                      |       block
 002ba4: 20 01                      |         local.get 1
 002ba6: 10 c2 80 80 80 00          |         call 66
 002bac: 45                         |         i32.eqz
 002bad: 0d 00                      |         br_if 0
 002baf: 42 8e f0 b9 dc db d7 02    |         i64.const 11810011772942
 002bb7: 21 00                      |         local.set 0
 002bb9: 0c 01                      |         br 1
 002bbb: 0b                         |       end
 002bbc: 02 40                      |       block
 002bbe: 20 09                      |         local.get 9
 002bc0: 20 02                      |         local.get 2
 002bc2: 20 0a                      |         local.get 10
 002bc4: 20 03                      |         local.get 3
 002bc6: 20 0b                      |         local.get 11
 002bc8: 20 04                      |         local.get 4
 002bca: 20 0c                      |         local.get 12
 002bcc: 20 05                      |         local.get 5
 002bce: 10 c0 80 80 80 00          |         call 64
 002bd4: 0d 00                      |         br_if 0
 002bd6: 20 03                      |         local.get 3
 002bd8: 20 04                      |         local.get 4
 002bda: 85                         |         i64.xor
 002bdb: 42 7f                      |         i64.const 18446744073709551615
 002bdd: 85                         |         i64.xor
 002bde: 20 03                      |         local.get 3
 002be0: 20 03                      |         local.get 3
 002be2: 20 04                      |         local.get 4
 002be4: 7c                         |         i64.add
 002be5: 20 0a                      |         local.get 10
 002be7: 20 0b                      |         local.get 11
 002be9: 7c                         |         i64.add
 002bea: 22 01                      |         local.tee 1
 002bec: 20 0a                      |         local.get 10
 002bee: 54                         |         i64.lt_u
 002bef: ad                         |         i64.extend_i32_u
 002bf0: 7c                         |         i64.add
 002bf1: 22 00                      |         local.tee 0
 002bf3: 85                         |         i64.xor
 002bf4: 83                         |         i64.and
 002bf5: 42 00                      |         i64.const 0
 002bf7: 53                         |         i64.lt_s
 002bf8: 0d 03                      |         br_if 3
 002bfa: 20 00                      |         local.get 0
 002bfc: 20 05                      |         local.get 5
 002bfe: 85                         |         i64.xor
 002bff: 42 7f                      |         i64.const 18446744073709551615
 002c01: 85                         |         i64.xor
 002c02: 20 00                      |         local.get 0
 002c04: 20 00                      |         local.get 0
 002c06: 20 05                      |         local.get 5
 002c08: 7c                         |         i64.add
 002c09: 20 01                      |         local.get 1
 002c0b: 20 0c                      |         local.get 12
 002c0d: 7c                         |         i64.add
 002c0e: 22 03                      |         local.tee 3
 002c10: 20 01                      |         local.get 1
 002c12: 54                         |         i64.lt_u
 002c13: ad                         |         i64.extend_i32_u
 002c14: 7c                         |         i64.add
 002c15: 22 01                      |         local.tee 1
 002c17: 85                         |         i64.xor
 002c18: 83                         |         i64.and
 002c19: 42 00                      |         i64.const 0
 002c1b: 53                         |         i64.lt_s
 002c1c: 0d 03                      |         br_if 3
 002c1e: 42 8e da ac b7 cb a6 e7 01 |         i64.const 1017274662857998
 002c27: 42 8e f8 f4 98 cd ce 03    |         i64.const 15894920903694
 002c2f: 20 09                      |         local.get 9
 002c31: 20 03                      |         local.get 3
 002c33: 56                         |         i64.gt_u
 002c34: 20 02                      |         local.get 2
 002c36: 20 01                      |         local.get 1
 002c38: 55                         |         i64.gt_s
 002c39: 20 02                      |         local.get 2
 002c3b: 20 01                      |         local.get 1
 002c3d: 51                         |         i64.eq
 002c3e: 1b                         |         select
 002c3f: 1b                         |         select
 002c40: 21 00                      |         local.set 0
 002c42: 0c 01                      |         br 1
 002c44: 0b                         |       end
 002c45: 41 d3 81 c0 80 00          |       i32.const 1048787
 002c4b: 41 09                      |       i32.const 9
 002c4d: 20 01                      |       local.get 1
 002c4f: 20 09                      |       local.get 9
 002c51: 20 02                      |       local.get 2
 002c53: 10 bb 80 80 80 00          |       call 59
 002c59: 41 dc 81 c0 80 00          |       i32.const 1048796
 002c5f: 41 0b                      |       i32.const 11
 002c61: 20 01                      |       local.get 1
 002c63: 20 0a                      |       local.get 10
 002c65: 20 03                      |       local.get 3
 002c67: 10 bb 80 80 80 00          |       call 59
 002c6d: 41 e7 81 c0 80 00          |       i32.const 1048807
 002c73: 41 09                      |       i32.const 9
 002c75: 20 01                      |       local.get 1
 002c77: 20 0b                      |       local.get 11
 002c79: 20 04                      |       local.get 4
 002c7b: 10 bb 80 80 80 00          |       call 59
 002c81: 41 f0 81 c0 80 00          |       i32.const 1048816
 002c87: 41 0a                      |       i32.const 10
 002c89: 20 01                      |       local.get 1
 002c8b: 20 0c                      |       local.get 12
 002c8d: 20 05                      |       local.get 5
 002c8f: 10 bb 80 80 80 00          |       call 59
 002c95: 41 fa 81 c0 80 00          |       i32.const 1048826
 002c9b: 41 09                      |       i32.const 9
 002c9d: 20 01                      |       local.get 1
 002c9f: 20 06                      |       local.get 6
 002ca1: 10 bd 80 80 80 00          |       call 61
 002ca7: 20 01                      |       local.get 1
 002ca9: 41 00                      |       i32.const 0
 002cab: 10 bf 80 80 80 00          |       call 63
 002cb1: 41 98 82 c0 80 00          |       i32.const 1048856
 002cb7: 41 0b                      |       i32.const 11
 002cb9: 20 01                      |       local.get 1
 002cbb: 42 00                      |       i64.const 0
 002cbd: 42 00                      |       i64.const 0
 002cbf: 10 bb 80 80 80 00          |       call 59
 002cc5: 20 07                      |       local.get 7
 002cc7: 41 92 80 c0 80 00          |       i32.const 1048594
 002ccd: 41 05                      |       i32.const 5
 002ccf: 10 b7 80 80 80 00          |       call 55
 002cd5: 20 07                      |       local.get 7
 002cd7: 29 03 08                   |       i64.load 3 8
 002cda: 22 00                      |       local.tee 0
 002cdc: 20 02                      |       local.get 2
 002cde: 85                         |       i64.xor
 002cdf: 42 7f                      |       i64.const 18446744073709551615
 002ce1: 85                         |       i64.xor
 002ce2: 20 00                      |       local.get 0
 002ce4: 20 00                      |       local.get 0
 002ce6: 20 02                      |       local.get 2
 002ce8: 7c                         |       i64.add
 002ce9: 20 07                      |       local.get 7
 002ceb: 29 03 00                   |       i64.load 3 0
 002cee: 22 05                      |       local.tee 5
 002cf0: 20 09                      |       local.get 9
 002cf2: 7c                         |       i64.add
 002cf3: 22 06                      |       local.tee 6
 002cf5: 20 05                      |       local.get 5
 002cf7: 54                         |       i64.lt_u
 002cf8: ad                         |       i64.extend_i32_u
 002cf9: 7c                         |       i64.add
 002cfa: 22 05                      |       local.tee 5
 002cfc: 85                         |       i64.xor
 002cfd: 83                         |       i64.and
 002cfe: 42 00                      |       i64.const 0
 002d00: 53                         |       i64.lt_s
 002d01: 0d 02                      |       br_if 2
 002d03: 41 92 80 c0 80 00          |       i32.const 1048594
 002d09: 41 05                      |       i32.const 5
 002d0b: 20 06                      |       local.get 6
 002d0d: 20 05                      |       local.get 5
 002d0f: 10 b8 80 80 80 00          |       call 56
 002d15: 20 07                      |       local.get 7
 002d17: 41 9c 80 c0 80 00          |       i32.const 1048604
 002d1d: 41 05                      |       i32.const 5
 002d1f: 10 b7 80 80 80 00          |       call 55
 002d25: 20 07                      |       local.get 7
 002d27: 29 03 08                   |       i64.load 3 8
 002d2a: 22 00                      |       local.tee 0
 002d2c: 42 7f                      |       i64.const 18446744073709551615
 002d2e: 85                         |       i64.xor
 002d2f: 20 00                      |       local.get 0
 002d31: 20 00                      |       local.get 0
 002d33: 20 07                      |       local.get 7
 002d35: 29 03 00                   |       i64.load 3 0
 002d38: 42 01                      |       i64.const 1
 002d3a: 7c                         |       i64.add
 002d3b: 22 05                      |       local.tee 5
 002d3d: 50                         |       i64.eqz
 002d3e: ad                         |       i64.extend_i32_u
 002d3f: 7c                         |       i64.add
 002d40: 22 06                      |       local.tee 6
 002d42: 85                         |       i64.xor
 002d43: 83                         |       i64.and
 002d44: 42 00                      |       i64.const 0
 002d46: 53                         |       i64.lt_s
 002d47: 0d 02                      |       br_if 2
 002d49: 41 9c 80 c0 80 00          |       i32.const 1048604
 002d4f: 41 05                      |       i32.const 5
 002d51: 20 05                      |       local.get 5
 002d53: 20 06                      |       local.get 6
 002d55: 10 b8 80 80 80 00          |       call 56
 002d5b: 20 07                      |       local.get 7
 002d5d: 41 a1 80 c0 80 00          |       i32.const 1048609
 002d63: 41 05                      |       i32.const 5
 002d65: 10 b7 80 80 80 00          |       call 55
 002d6b: 20 07                      |       local.get 7
 002d6d: 29 03 08                   |       i64.load 3 8
 002d70: 22 00                      |       local.tee 0
 002d72: 20 02                      |       local.get 2
 002d74: 85                         |       i64.xor
 002d75: 42 7f                      |       i64.const 18446744073709551615
 002d77: 85                         |       i64.xor
 002d78: 20 00                      |       local.get 0
 002d7a: 20 00                      |       local.get 0
 002d7c: 20 02                      |       local.get 2
 002d7e: 7c                         |       i64.add
 002d7f: 20 07                      |       local.get 7
 002d81: 29 03 00                   |       i64.load 3 0
 002d84: 22 02                      |       local.tee 2
 002d86: 20 09                      |       local.get 9
 002d88: 7c                         |       i64.add
 002d89: 22 05                      |       local.tee 5
 002d8b: 20 02                      |       local.get 2
 002d8d: 54                         |       i64.lt_u
 002d8e: ad                         |       i64.extend_i32_u
 002d8f: 7c                         |       i64.add
 002d90: 22 02                      |       local.tee 2
 002d92: 85                         |       i64.xor
 002d93: 83                         |       i64.and
 002d94: 42 00                      |       i64.const 0
 002d96: 53                         |       i64.lt_s
 002d97: 0d 02                      |       br_if 2
 002d99: 41 a1 80 c0 80 00          |       i32.const 1048609
 002d9f: 41 05                      |       i32.const 5
 002da1: 20 05                      |       local.get 5
 002da3: 20 02                      |       local.get 2
 002da5: 10 b8 80 80 80 00          |       call 56
 002dab: 20 07                      |       local.get 7
 002dad: 41 a6 80 c0 80 00          |       i32.const 1048614
 002db3: 41 08                      |       i32.const 8
 002db5: 10 b7 80 80 80 00          |       call 55
 002dbb: 20 07                      |       local.get 7
 002dbd: 29 03 08                   |       i64.load 3 8
 002dc0: 22 00                      |       local.tee 0
 002dc2: 20 03                      |       local.get 3
 002dc4: 85                         |       i64.xor
 002dc5: 42 7f                      |       i64.const 18446744073709551615
 002dc7: 85                         |       i64.xor
 002dc8: 20 00                      |       local.get 0
 002dca: 20 00                      |       local.get 0
 002dcc: 20 03                      |       local.get 3
 002dce: 7c                         |       i64.add
 002dcf: 20 07                      |       local.get 7
 002dd1: 29 03 00                   |       i64.load 3 0
 002dd4: 22 02                      |       local.tee 2
 002dd6: 20 0a                      |       local.get 10
 002dd8: 7c                         |       i64.add
 002dd9: 22 03                      |       local.tee 3
 002ddb: 20 02                      |       local.get 2
 002ddd: 54                         |       i64.lt_u
 002dde: ad                         |       i64.extend_i32_u
 002ddf: 7c                         |       i64.add
 002de0: 22 02                      |       local.tee 2
 002de2: 85                         |       i64.xor
 002de3: 83                         |       i64.and
 002de4: 42 00                      |       i64.const 0
 002de6: 53                         |       i64.lt_s
 002de7: 0d 02                      |       br_if 2
 002de9: 41 a6 80 c0 80 00          |       i32.const 1048614
 002def: 41 08                      |       i32.const 8
 002df1: 20 03                      |       local.get 3
 002df3: 20 02                      |       local.get 2
 002df5: 10 b8 80 80 80 00          |       call 56
 002dfb: 20 07                      |       local.get 7
 002dfd: 41 ae 80 c0 80 00          |       i32.const 1048622
 002e03: 41 07                      |       i32.const 7
 002e05: 10 b7 80 80 80 00          |       call 55
 002e0b: 20 07                      |       local.get 7
 002e0d: 29 03 08                   |       i64.load 3 8
 002e10: 22 00                      |       local.tee 0
 002e12: 20 04                      |       local.get 4
 002e14: 85                         |       i64.xor
 002e15: 42 7f                      |       i64.const 18446744073709551615
 002e17: 85                         |       i64.xor
 002e18: 20 00                      |       local.get 0
 002e1a: 20 00                      |       local.get 0
 002e1c: 20 04                      |       local.get 4
 002e1e: 7c                         |       i64.add
 002e1f: 20 07                      |       local.get 7
 002e21: 29 03 00                   |       i64.load 3 0
 002e24: 22 02                      |       local.tee 2
 002e26: 20 0b                      |       local.get 11
 002e28: 7c                         |       i64.add
 002e29: 22 03                      |       local.tee 3
 002e2b: 20 02                      |       local.get 2
 002e2d: 54                         |       i64.lt_u
 002e2e: ad                         |       i64.extend_i32_u
 002e2f: 7c                         |       i64.add
 002e30: 22 02                      |       local.tee 2
 002e32: 85                         |       i64.xor
 002e33: 83                         |       i64.and
 002e34: 42 00                      |       i64.const 0
 002e36: 53                         |       i64.lt_s
 002e37: 0d 02                      |       br_if 2
 002e39: 41 ae 80 c0 80 00          |       i32.const 1048622
 002e3f: 41 07                      |       i32.const 7
 002e41: 20 03                      |       local.get 3
 002e43: 20 02                      |       local.get 2
 002e45: 10 b8 80 80 80 00          |       call 56
 002e4b: 20 07                      |       local.get 7
 002e4d: 41 bb 81 c0 80 00          |       i32.const 1048763
 002e53: 41 14                      |       i32.const 20
 002e55: 10 b7 80 80 80 00          |       call 55
 002e5b: 20 07                      |       local.get 7
 002e5d: 29 03 08                   |       i64.load 3 8
 002e60: 22 00                      |       local.tee 0
 002e62: 42 7f                      |       i64.const 18446744073709551615
 002e64: 85                         |       i64.xor
 002e65: 20 00                      |       local.get 0
 002e67: 20 00                      |       local.get 0
 002e69: 20 07                      |       local.get 7
 002e6b: 29 03 00                   |       i64.load 3 0
 002e6e: 42 01                      |       i64.const 1
 002e70: 7c                         |       i64.add
 002e71: 22 02                      |       local.tee 2
 002e73: 50                         |       i64.eqz
 002e74: ad                         |       i64.extend_i32_u
 002e75: 7c                         |       i64.add
 002e76: 22 03                      |       local.tee 3
 002e78: 85                         |       i64.xor
 002e79: 83                         |       i64.and
 002e7a: 42 7f                      |       i64.const 18446744073709551615
 002e7c: 57                         |       i64.le_s
 002e7d: 0d 02                      |       br_if 2
 002e7f: 41 a3 82 c0 80 00          |       i32.const 1048867
 002e85: 41 0e                      |       i32.const 14
 002e87: 10 cd 80 80 80 00          |       call 77
 002e8d: 20 02                      |       local.get 2
 002e8f: 20 03                      |       local.get 3
 002e91: 10 a1 80 80 80 00          |       call 33
 002e97: 20 01                      |       local.get 1
 002e99: 42 01                      |       i64.const 1
 002e9b: 10 83 80 80 80 00          |       call 3 <l._>
 002ea1: 1a                         |       drop
 002ea2: 41 bb 81 c0 80 00          |       i32.const 1048763
 002ea8: 41 14                      |       i32.const 20
 002eaa: 20 02                      |       local.get 2
 002eac: 20 03                      |       local.get 3
 002eae: 10 b8 80 80 80 00          |       call 56
 002eb4: 42 8e d2 ea dc a9 bd a3 01 |       i64.const 718988725889294
 002ebd: 21 00                      |       local.set 0
 002ebf: 0b                         |     end
 002ec0: 20 07                      |     local.get 7
 002ec2: 41 20                      |     i32.const 32
 002ec4: 6a                         |     i32.add
 002ec5: 24 80 80 80 80 00          |     global.set 0
 002ecb: 20 00                      |     local.get 0
 002ecd: 0f                         |     return
 002ece: 0b                         |   end
 002ecf: 00                         |   unreachable
 002ed0: 0b                         | end
 002ed1: 10 c1 80 80 80 00          | call 65
 002ed7: 00                         | unreachable
 002ed8: 0b                         | end
002edb func[101] <edit_debit_detailed>:
 002edc: 02 7f                      | local[7..8] type=i32
 002ede: 04 7e                      | local[9..12] type=i64
 002ee0: 23 80 80 80 80 00          | global.get 0
 002ee6: 41 20                      | i32.const 32
 002ee8: 6b                         | i32.sub
 002ee9: 22 07                      | local.tee 7
 002eeb: 24 80 80 80 80 00          | global.set 0
 002ef1: 02 40                      | block
 002ef3: 20 00                      |   local.get 0
 002ef5: 42 ff 01                   |   i64.const 255
 002ef8: 83                         |   i64.and
 002ef9: 42 cd 00                   |   i64.const 77
 002efc: 52                         |   i64.ne
 002efd: 0d 00                      |   br_if 0
 002eff: 02 40                      |   block
 002f01: 20 01                      |     local.get 1
 002f03: a7                         |     i32.wrap_i64
 002f04: 41 ff 01                   |     i32.const 255
 002f07: 71                         |     i32.and
 002f08: 22 08                      |     local.tee 8
 002f0a: 41 0e                      |     i32.const 14
 002f0c: 46                         |     i32.eq
 002f0d: 0d 00                      |     br_if 0
 002f0f: 20 08                      |     local.get 8
 002f11: 41 ca 00                   |     i32.const 74
 002f14: 47                         |     i32.ne
 002f15: 0d 01                      |     br_if 1
 002f17: 0b                         |   end
 002f18: 20 07                      |   local.get 7
 002f1a: 20 02                      |   local.get 2
 002f1c: 10 9f 80 80 80 00          |   call 31
 002f22: 20 07                      |   local.get 7
 002f24: 28 02 00                   |   i32.load 2 0
 002f27: 41 01                      |   i32.const 1
 002f29: 46                         |   i32.eq
 002f2a: 0d 00                      |   br_if 0
 002f2c: 20 07                      |   local.get 7
 002f2e: 29 03 18                   |   i64.load 3 24
 002f31: 21 02                      |   local.set 2
 002f33: 20 07                      |   local.get 7
 002f35: 29 03 10                   |   i64.load 3 16
 002f38: 21 09                      |   local.set 9
 002f3a: 20 07                      |   local.get 7
 002f3c: 20 03                      |   local.get 3
 002f3e: 10 9f 80 80 80 00          |   call 31
 002f44: 20 07                      |   local.get 7
 002f46: 28 02 00                   |   i32.load 2 0
 002f49: 41 01                      |   i32.const 1
 002f4b: 46                         |   i32.eq
 002f4c: 0d 00                      |   br_if 0
 002f4e: 20 07                      |   local.get 7
 002f50: 29 03 18                   |   i64.load 3 24
 002f53: 21 03                      |   local.set 3
 002f55: 20 07                      |   local.get 7
 002f57: 29 03 10                   |   i64.load 3 16
 002f5a: 21 0a                      |   local.set 10
 002f5c: 20 07                      |   local.get 7
 002f5e: 20 04                      |   local.get 4
 002f60: 10 9f 80 80 80 00          |   call 31
 002f66: 20 07                      |   local.get 7
 002f68: 28 02 00                   |   i32.load 2 0
 002f6b: 41 01                      |   i32.const 1
 002f6d: 46                         |   i32.eq
 002f6e: 0d 00                      |   br_if 0
 002f70: 20 07                      |   local.get 7
 002f72: 29 03 18                   |   i64.load 3 24
 002f75: 21 04                      |   local.set 4
 002f77: 20 07                      |   local.get 7
 002f79: 29 03 10                   |   i64.load 3 16
 002f7c: 21 0b                      |   local.set 11
 002f7e: 20 07                      |   local.get 7
 002f80: 20 05                      |   local.get 5
 002f82: 10 9f 80 80 80 00          |   call 31
 002f88: 20 07                      |   local.get 7
 002f8a: 28 02 00                   |   i32.load 2 0
 002f8d: 41 01                      |   i32.const 1
 002f8f: 46                         |   i32.eq
 002f90: 0d 00                      |   br_if 0
 002f92: 20 07                      |   local.get 7
 002f94: 29 03 18                   |   i64.load 3 24
 002f97: 21 05                      |   local.set 5
 002f99: 20 07                      |   local.get 7
 002f9b: 29 03 10                   |   i64.load 3 16
 002f9e: 21 0c                      |   local.set 12
 002fa0: 20 07                      |   local.get 7
 002fa2: 20 06                      |   local.get 6
 002fa4: 10 9b 80 80 80 00          |   call 27
 002faa: 20 07                      |   local.get 7
 002fac: 28 02 00                   |   i32.load 2 0
 002faf: 41 01                      |   i32.const 1
 002fb1: 46                         |   i32.eq
 002fb2: 0d 00                      |   br_if 0
 002fb4: 20 07                      |   local.get 7
 002fb6: 29 03 08                   |   i64.load 3 8
 002fb9: 21 06                      |   local.set 6
 002fbb: 02 40                      |   block
 002fbd: 02 40                      |     block
 002fbf: 20 00                      |       local.get 0
 002fc1: 10 ce 80 80 80 00          |       call 78
 002fc7: 0d 00                      |       br_if 0
 002fc9: 42 8e da b9 dd b9 d6 03    |       i64.const 16164573834510
 002fd1: 21 00                      |       local.set 0
 002fd3: 0c 01                      |       br 1
 002fd5: 0b                         |     end
 002fd6: 02 40                      |     block
 002fd8: 20 09                      |       local.get 9
 002fda: 20 02                      |       local.get 2
 002fdc: 20 0a                      |       local.get 10
 002fde: 20 03                      |       local.get 3
 002fe0: 20 0b                      |       local.get 11
 002fe2: 20 04                      |       local.get 4
 002fe4: 20 0c                      |       local.get 12
 002fe6: 20 05                      |       local.get 5
 002fe8: 10 d4 80 80 80 00          |       call 84
 002fee: 41 ff 01                   |       i32.const 255
 002ff1: 71                         |       i32.and
 002ff2: 22 08                      |       local.tee 8
 002ff4: 41 1f                      |       i32.const 31
 002ff6: 46                         |       i32.eq
 002ff7: 0d 00                      |       br_if 0
 002ff9: 20 08                      |       local.get 8
 002ffb: 41 03                      |       i32.const 3
 002ffd: 74                         |       i32.shl
 002ffe: 41 98 84 c0 80 00          |       i32.const 1049112
 003004: 6a                         |       i32.add
 003005: 29 03 00                   |       i64.load 3 0
 003008: 21 00                      |       local.set 0
 00300a: 0c 01                      |       br 1
 00300c: 0b                         |     end
 00300d: 02 40                      |     block
 00300f: 20 01                      |       local.get 1
 003011: 10 c2 80 80 80 00          |       call 66
 003017: 0d 00                      |       br_if 0
 003019: 42 8e d2 b3 9d bd cd d3 e7 |       i64.const 58351545198897422
 003022: 00                         | 
 003023: 21 00                      |       local.set 0
 003025: 0c 01                      |       br 1
 003027: 0b                         |     end
 003028: 02 40                      |     block
 00302a: 20 01                      |       local.get 1
 00302c: 10 be 80 80 80 00          |       call 62
 003032: 45                         |       i32.eqz
 003033: 0d 00                      |       br_if 0
 003035: 42 8e d2 ae b3 0d          |       i64.const 3597379854
 00303b: 21 00                      |       local.set 0
 00303d: 0c 01                      |       br 1
 00303f: 0b                         |     end
 003040: 02 40                      |     block
 003042: 20 09                      |       local.get 9
 003044: 20 02                      |       local.get 2
 003046: 20 0a                      |       local.get 10
 003048: 20 03                      |       local.get 3
 00304a: 20 0b                      |       local.get 11
 00304c: 20 04                      |       local.get 4
 00304e: 20 0c                      |       local.get 12
 003050: 20 05                      |       local.get 5
 003052: 10 c0 80 80 80 00          |       call 64
 003058: 0d 00                      |       br_if 0
 00305a: 42 8e d2 ee d8 b9 9f bb 01 |       i64.const 823515336648974
 003063: 21 00                      |       local.set 0
 003065: 0c 01                      |       br 1
 003067: 0b                         |     end
 003068: 41 d3 81 c0 80 00          |     i32.const 1048787
 00306e: 41 09                      |     i32.const 9
 003070: 20 01                      |     local.get 1
 003072: 20 09                      |     local.get 9
 003074: 20 02                      |     local.get 2
 003076: 10 bb 80 80 80 00          |     call 59
 00307c: 41 dc 81 c0 80 00          |     i32.const 1048796
 003082: 41 0b                      |     i32.const 11
 003084: 20 01                      |     local.get 1
 003086: 20 0a                      |     local.get 10
 003088: 20 03                      |     local.get 3
 00308a: 10 bb 80 80 80 00          |     call 59
 003090: 41 e7 81 c0 80 00          |     i32.const 1048807
 003096: 41 09                      |     i32.const 9
 003098: 20 01                      |     local.get 1
 00309a: 20 0b                      |     local.get 11
 00309c: 20 04                      |     local.get 4
 00309e: 10 bb 80 80 80 00          |     call 59
 0030a4: 41 f0 81 c0 80 00          |     i32.const 1048816
 0030aa: 41 0a                      |     i32.const 10
 0030ac: 20 01                      |     local.get 1
 0030ae: 20 0c                      |     local.get 12
 0030b0: 20 05                      |     local.get 5
 0030b2: 10 bb 80 80 80 00          |     call 59
 0030b8: 41 fa 81 c0 80 00          |     i32.const 1048826
 0030be: 41 09                      |     i32.const 9
 0030c0: 20 01                      |     local.get 1
 0030c2: 20 06                      |     local.get 6
 0030c4: 10 bd 80 80 80 00          |     call 61
 0030ca: 42 8e d2 ea dc 9b d5 02    |     i64.const 11724113225998
 0030d2: 21 00                      |     local.set 0
 0030d4: 0b                         |   end
 0030d5: 20 07                      |   local.get 7
 0030d7: 41 20                      |   i32.const 32
 0030d9: 6a                         |   i32.add
 0030da: 24 80 80 80 80 00          |   global.set 0
 0030e0: 20 00                      |   local.get 0
 0030e2: 0f                         |   return
 0030e3: 0b                         | end
 0030e4: 00                         | unreachable
 0030e5: 0b                         | end
0030e7 func[102] <get_debit_amount>:
 0030e8: 02 7f                      | local[1..2] type=i32
 0030ea: 23 80 80 80 80 00          | global.get 0
 0030f0: 41 10                      | i32.const 16
 0030f2: 6b                         | i32.sub
 0030f3: 22 01                      | local.tee 1
 0030f5: 24 80 80 80 80 00          | global.set 0
 0030fb: 02 40                      | block
 0030fd: 20 00                      |   local.get 0
 0030ff: a7                         |   i32.wrap_i64
 003100: 41 ff 01                   |   i32.const 255
 003103: 71                         |   i32.and
 003104: 22 02                      |   local.tee 2
 003106: 41 0e                      |   i32.const 14
 003108: 46                         |   i32.eq
 003109: 0d 00                      |   br_if 0
 00310b: 20 02                      |   local.get 2
 00310d: 41 ca 00                   |   i32.const 74
 003110: 46                         |   i32.eq
 003111: 0d 00                      |   br_if 0
 003113: 00                         |   unreachable
 003114: 0b                         | end
 003115: 20 01                      | local.get 1
 003117: 41 d3 81 c0 80 00          | i32.const 1048787
 00311d: 41 09                      | i32.const 9
 00311f: 20 00                      | local.get 0
 003121: 10 ba 80 80 80 00          | call 58
 003127: 20 01                      | local.get 1
 003129: 29 03 00                   | i64.load 3 0
 00312c: 20 01                      | local.get 1
 00312e: 29 03 08                   | i64.load 3 8
 003131: 10 a7 80 80 80 00          | call 39
 003137: 21 00                      | local.set 0
 003139: 20 01                      | local.get 1
 00313b: 41 10                      | i32.const 16
 00313d: 6a                         | i32.add
 00313e: 24 80 80 80 80 00          | global.set 0
 003144: 20 00                      | local.get 0
 003146: 0b                         | end
003148 func[103] <debit_exists>:
 003149: 01 7f                      | local[1] type=i32
 00314b: 02 40                      | block
 00314d: 20 00                      |   local.get 0
 00314f: a7                         |   i32.wrap_i64
 003150: 41 ff 01                   |   i32.const 255
 003153: 71                         |   i32.and
 003154: 22 01                      |   local.tee 1
 003156: 41 0e                      |   i32.const 14
 003158: 46                         |   i32.eq
 003159: 0d 00                      |   br_if 0
 00315b: 20 01                      |   local.get 1
 00315d: 41 ca 00                   |   i32.const 74
 003160: 46                         |   i32.eq
 003161: 0d 00                      |   br_if 0
 003163: 00                         |   unreachable
 003164: 0b                         | end
 003165: 20 00                      | local.get 0
 003167: 10 c2 80 80 80 00          | call 66
 00316d: ad                         | i64.extend_i32_u
 00316e: 0b                         | end
003171 func[104] <has_payment_late>:
 003172: 01 7f                      | local[1] type=i32
 003174: 03 7e                      | local[2..4] type=i64
 003176: 01 7f                      | local[5] type=i32
 003178: 02 7e                      | local[6..7] type=i64
 00317a: 01 7f                      | local[8] type=i32
 00317c: 03 7e                      | local[9..11] type=i64
 00317e: 23 80 80 80 80 00          | global.get 0
 003184: 41 10                      | i32.const 16
 003186: 6b                         | i32.sub
 003187: 22 01                      | local.tee 1
 003189: 24 80 80 80 80 00          | global.set 0
 00318f: 20 01                      | local.get 1
 003191: 20 00                      | local.get 0
 003193: 10 9b 80 80 80 00          | call 27
 003199: 02 40                      | block
 00319b: 02 40                      |   block
 00319d: 02 40                      |     block
 00319f: 20 01                      |       local.get 1
 0031a1: 28 02 00                   |       i32.load 2 0
 0031a4: 41 01                      |       i32.const 1
 0031a6: 46                         |       i32.eq
 0031a7: 0d 00                      |       br_if 0
 0031a9: 20 01                      |       local.get 1
 0031ab: 29 03 08                   |       i64.load 3 8
 0031ae: 21 02                      |       local.set 2
 0031b0: 20 01                      |       local.get 1
 0031b2: 41 bb 81 c0 80 00          |       i32.const 1048763
 0031b8: 41 14                      |       i32.const 20
 0031ba: 10 b7 80 80 80 00          |       call 55
 0031c0: 02 40                      |       block
 0031c2: 20 01                      |         local.get 1
 0031c4: 29 03 00                   |         i64.load 3 0
 0031c7: 22 03                      |         local.tee 3
 0031c9: 20 01                      |         local.get 1
 0031cb: 29 03 08                   |         i64.load 3 8
 0031ce: 22 00                      |         local.tee 0
 0031d0: 84                         |         i64.or
 0031d1: 50                         |         i64.eqz
 0031d2: 45                         |         i32.eqz
 0031d3: 0d 00                      |         br_if 0
 0031d5: 42 00                      |         i64.const 0
 0031d7: 21 04                      |         local.set 4
 0031d9: 0c 03                      |         br 3
 0031db: 0b                         |       end
 0031dc: 42 00                      |       i64.const 0
 0031de: 21 04                      |       local.set 4
 0031e0: 20 00                      |       local.get 0
 0031e2: 42 00                      |       i64.const 0
 0031e4: 20 03                      |       local.get 3
 0031e6: 42 e8 07                   |       i64.const 1000
 0031e9: 54                         |       i64.lt_u
 0031ea: 20 00                      |       local.get 0
 0031ec: 42 00                      |       i64.const 0
 0031ee: 53                         |       i64.lt_s
 0031ef: 20 00                      |       local.get 0
 0031f1: 50                         |       i64.eqz
 0031f2: 1b                         |       select
 0031f3: 22 05                      |       local.tee 5
 0031f5: 1b                         |       select
 0031f6: 21 06                      |       local.set 6
 0031f8: 20 03                      |       local.get 3
 0031fa: 42 e8 07                   |       i64.const 1000
 0031fd: 20 05                      |       local.get 5
 0031ff: 1b                         |       select
 003200: 21 07                      |       local.set 7
 003202: 41 00                      |       i32.const 0
 003204: 21 08                      |       local.set 8
 003206: 42 01                      |       i64.const 1
 003208: 21 03                      |       local.set 3
 00320a: 42 00                      |       i64.const 0
 00320c: 21 00                      |       local.set 0
 00320e: 03 40                      |       loop
 003210: 20 08                      |         local.get 8
 003212: 41 01                      |         i32.const 1
 003214: 71                         |         i32.and
 003215: 0d 02                      |         br_if 2
 003217: 20 03                      |         local.get 3
 003219: 20 07                      |         local.get 7
 00321b: 56                         |         i64.gt_u
 00321c: 20 00                      |         local.get 0
 00321e: 20 06                      |         local.get 6
 003220: 55                         |         i64.gt_s
 003221: 20 00                      |         local.get 0
 003223: 20 06                      |         local.get 6
 003225: 51                         |         i64.eq
 003226: 22 05                      |         local.tee 5
 003228: 1b                         |         select
 003229: 0d 02                      |         br_if 2
 00322b: 20 03                      |         local.get 3
 00322d: 20 07                      |         local.get 7
 00322f: 5a                         |         i64.ge_u
 003230: 20 00                      |         local.get 0
 003232: 20 06                      |         local.get 6
 003234: 59                         |         i64.ge_s
 003235: 20 05                      |         local.get 5
 003237: 1b                         |         select
 003238: 21 08                      |         local.set 8
 00323a: 20 03                      |         local.get 3
 00323c: 20 03                      |         local.get 3
 00323e: 20 07                      |         local.get 7
 003240: 54                         |         i64.lt_u
 003241: 20 00                      |         local.get 0
 003243: 20 06                      |         local.get 6
 003245: 53                         |         i64.lt_s
 003246: 20 05                      |         local.get 5
 003248: 1b                         |         select
 003249: ad                         |         i64.extend_i32_u
 00324a: 7c                         |         i64.add
 00324b: 22 09                      |         local.tee 9
 00324d: 20 03                      |         local.get 3
 00324f: 54                         |         i64.lt_u
 003250: 21 05                      |         local.set 5
 003252: 41 a3 82 c0 80 00          |         i32.const 1048867
 003258: 41 0e                      |         i32.const 14
 00325a: 10 cd 80 80 80 00          |         call 77
 003260: 20 03                      |         local.get 3
 003262: 20 00                      |         local.get 0
 003264: 10 a1 80 80 80 00          |         call 33
 00326a: 21 0a                      |         local.set 10
 00326c: 20 09                      |         local.get 9
 00326e: 21 03                      |         local.set 3
 003270: 20 00                      |         local.get 0
 003272: 20 05                      |         local.get 5
 003274: ad                         |         i64.extend_i32_u
 003275: 7c                         |         i64.add
 003276: 22 0b                      |         local.tee 11
 003278: 21 00                      |         local.set 0
 00327a: 20 0a                      |         local.get 10
 00327c: 42 01                      |         i64.const 1
 00327e: 10 9d 80 80 80 00          |         call 29
 003284: 45                         |         i32.eqz
 003285: 0d 00                      |         br_if 0
 003287: 02 40                      |         block
 003289: 20 0a                      |           local.get 10
 00328b: 42 01                      |           i64.const 1
 00328d: 10 82 80 80 80 00          |           call 2 <l.1>
 003293: 22 0a                      |           local.tee 10
 003295: a7                         |           i32.wrap_i64
 003296: 41 ff 01                   |           i32.const 255
 003299: 71                         |           i32.and
 00329a: 22 05                      |           local.tee 5
 00329c: 41 0e                      |           i32.const 14
 00329e: 46                         |           i32.eq
 00329f: 0d 00                      |           br_if 0
 0032a1: 20 05                      |           local.get 5
 0032a3: 41 ca 00                   |           i32.const 74
 0032a6: 47                         |           i32.ne
 0032a7: 0d 02                      |           br_if 2
 0032a9: 0b                         |         end
 0032aa: 20 09                      |         local.get 9
 0032ac: 21 03                      |         local.set 3
 0032ae: 20 0b                      |         local.get 11
 0032b0: 21 00                      |         local.set 0
 0032b2: 20 0a                      |         local.get 10
 0032b4: 10 be 80 80 80 00          |         call 62
 0032ba: 0d 00                      |         br_if 0
 0032bc: 20 09                      |         local.get 9
 0032be: 21 03                      |         local.set 3
 0032c0: 20 0b                      |         local.get 11
 0032c2: 21 00                      |         local.set 0
 0032c4: 20 02                      |         local.get 2
 0032c6: 41 fa 81 c0 80 00          |         i32.const 1048826
 0032cc: 41 09                      |         i32.const 9
 0032ce: 20 0a                      |         local.get 10
 0032d0: 10 bc 80 80 80 00          |         call 60
 0032d6: 58                         |         i64.le_u
 0032d7: 0d 00                      |         br_if 0
 0032d9: 0b                         |       end
 0032da: 42 01                      |       i64.const 1
 0032dc: 21 04                      |       local.set 4
 0032de: 0c 02                      |       br 2
 0032e0: 0b                         |     end
 0032e1: 00                         |     unreachable
 0032e2: 0b                         |   end
 0032e3: 0b                         | end
 0032e4: 20 04                      | local.get 4
 0032e6: 20 0a                      | local.get 10
 0032e8: 10 ad 80 80 80 00          | call 45
 0032ee: 21 00                      | local.set 0
 0032f0: 20 01                      | local.get 1
 0032f2: 41 10                      | i32.const 16
 0032f4: 6a                         | i32.add
 0032f5: 24 80 80 80 80 00          | global.set 0
 0032fb: 20 00                      | local.get 0
 0032fd: 0b                         | end
003300 func[105] <delete_all_debits>:
 003301: 01 7f                      | local[1] type=i32
 003303: 01 7e                      | local[2] type=i64
 003305: 23 80 80 80 80 00          | global.get 0
 00330b: 41 10                      | i32.const 16
 00330d: 6b                         | i32.sub
 00330e: 22 01                      | local.tee 1
 003310: 24 80 80 80 80 00          | global.set 0
 003316: 02 40                      | block
 003318: 20 00                      |   local.get 0
 00331a: 42 ff 01                   |   i64.const 255
 00331d: 83                         |   i64.and
 00331e: 42 cd 00                   |   i64.const 77
 003321: 52                         |   i64.ne
 003322: 0d 00                      |   br_if 0
 003324: 42 8e da b9 dd b9 d6 03    |   i64.const 16164573834510
 00332c: 21 02                      |   local.set 2
 00332e: 02 40                      |   block
 003330: 20 00                      |     local.get 0
 003332: 10 ce 80 80 80 00          |     call 78
 003338: 45                         |     i32.eqz
 003339: 0d 00                      |     br_if 0
 00333b: 20 01                      |     local.get 1
 00333d: 41 9c 80 c0 80 00          |     i32.const 1048604
 003343: 41 05                      |     i32.const 5
 003345: 10 b7 80 80 80 00          |     call 55
 00334b: 02 40                      |     block
 00334d: 20 01                      |       local.get 1
 00334f: 29 03 00                   |       i64.load 3 0
 003352: 20 01                      |       local.get 1
 003354: 29 03 08                   |       i64.load 3 8
 003357: 84                         |       i64.or
 003358: 42 00                      |       i64.const 0
 00335a: 52                         |       i64.ne
 00335b: 0d 00                      |       br_if 0
 00335d: 41 c6 83 c0 80 00          |       i32.const 1049030
 003363: 41 13                      |       i32.const 19
 003365: 10 cd 80 80 80 00          |       call 77
 00336b: 21 02                      |       local.set 2
 00336d: 0c 01                      |       br 1
 00336f: 0b                         |     end
 003370: 41 cf 81 c0 80 00          |     i32.const 1048783
 003376: 41 04                      |     i32.const 4
 003378: 42 00                      |     i64.const 0
 00337a: 42 00                      |     i64.const 0
 00337c: 10 b8 80 80 80 00          |     call 56
 003382: 41 9c 80 c0 80 00          |     i32.const 1048604
 003388: 41 05                      |     i32.const 5
 00338a: 42 00                      |     i64.const 0
 00338c: 42 00                      |     i64.const 0
 00338e: 10 b8 80 80 80 00          |     call 56
 003394: 41 bb 81 c0 80 00          |     i32.const 1048763
 00339a: 41 14                      |     i32.const 20
 00339c: 42 00                      |     i64.const 0
 00339e: 42 00                      |     i64.const 0
 0033a0: 10 b8 80 80 80 00          |     call 56
 0033a6: 41 92 80 c0 80 00          |     i32.const 1048594
 0033ac: 41 05                      |     i32.const 5
 0033ae: 42 00                      |     i64.const 0
 0033b0: 42 00                      |     i64.const 0
 0033b2: 10 b8 80 80 80 00          |     call 56
 0033b8: 41 97 80 c0 80 00          |     i32.const 1048599
 0033be: 41 05                      |     i32.const 5
 0033c0: 42 00                      |     i64.const 0
 0033c2: 42 00                      |     i64.const 0
 0033c4: 10 b8 80 80 80 00          |     call 56
 0033ca: 41 b5 80 c0 80 00          |     i32.const 1048629
 0033d0: 41 07                      |     i32.const 7
 0033d2: 42 00                      |     i64.const 0
 0033d4: 42 00                      |     i64.const 0
 0033d6: 10 b8 80 80 80 00          |     call 56
 0033dc: 41 bc 80 c0 80 00          |     i32.const 1048636
 0033e2: 41 08                      |     i32.const 8
 0033e4: 42 00                      |     i64.const 0
 0033e6: 42 00                      |     i64.const 0
 0033e8: 10 b8 80 80 80 00          |     call 56
 0033ee: 41 a1 80 c0 80 00          |     i32.const 1048609
 0033f4: 41 05                      |     i32.const 5
 0033f6: 42 00                      |     i64.const 0
 0033f8: 42 00                      |     i64.const 0
 0033fa: 10 b8 80 80 80 00          |     call 56
 003400: 41 a6 80 c0 80 00          |     i32.const 1048614
 003406: 41 08                      |     i32.const 8
 003408: 42 00                      |     i64.const 0
 00340a: 42 00                      |     i64.const 0
 00340c: 10 b8 80 80 80 00          |     call 56
 003412: 41 ae 80 c0 80 00          |     i32.const 1048622
 003418: 41 07                      |     i32.const 7
 00341a: 42 00                      |     i64.const 0
 00341c: 42 00                      |     i64.const 0
 00341e: 10 b8 80 80 80 00          |     call 56
 003424: 41 d9 83 c0 80 00          |     i32.const 1049049
 00342a: 41 12                      |     i32.const 18
 00342c: 10 cd 80 80 80 00          |     call 77
 003432: 21 02                      |     local.set 2
 003434: 0b                         |   end
 003435: 20 01                      |   local.get 1
 003437: 41 10                      |   i32.const 16
 003439: 6a                         |   i32.add
 00343a: 24 80 80 80 80 00          |   global.set 0
 003440: 20 02                      |   local.get 2
 003442: 0f                         |   return
 003443: 0b                         | end
 003444: 00                         | unreachable
 003445: 0b                         | end
003447 func[106] <get_total_debit>:
 003448: 01 7f                      | local[0] type=i32
 00344a: 01 7e                      | local[1] type=i64
 00344c: 23 80 80 80 80 00          | global.get 0
 003452: 41 10                      | i32.const 16
 003454: 6b                         | i32.sub
 003455: 22 00                      | local.tee 0
 003457: 24 80 80 80 80 00          | global.set 0
 00345d: 20 00                      | local.get 0
 00345f: 10 c3 80 80 80 00          | call 67
 003465: 20 00                      | local.get 0
 003467: 29 03 00                   | i64.load 3 0
 00346a: 20 00                      | local.get 0
 00346c: 29 03 08                   | i64.load 3 8
 00346f: 10 a7 80 80 80 00          | call 39
 003475: 21 01                      | local.set 1
 003477: 20 00                      | local.get 0
 003479: 41 10                      | i32.const 16
 00347b: 6a                         | i32.add
 00347c: 24 80 80 80 80 00          | global.set 0
 003482: 20 01                      | local.get 1
 003484: 0b                         | end
003486 func[107] <get_total_paid>:
 003487: 01 7f                      | local[0] type=i32
 003489: 01 7e                      | local[1] type=i64
 00348b: 23 80 80 80 80 00          | global.get 0
 003491: 41 10                      | i32.const 16
 003493: 6b                         | i32.sub
 003494: 22 00                      | local.tee 0
 003496: 24 80 80 80 80 00          | global.set 0
 00349c: 20 00                      | local.get 0
 00349e: 10 c4 80 80 80 00          | call 68
 0034a4: 20 00                      | local.get 0
 0034a6: 29 03 00                   | i64.load 3 0
 0034a9: 20 00                      | local.get 0
 0034ab: 29 03 08                   | i64.load 3 8
 0034ae: 10 a7 80 80 80 00          | call 39
 0034b4: 21 01                      | local.set 1
 0034b6: 20 00                      | local.get 0
 0034b8: 41 10                      | i32.const 16
 0034ba: 6a                         | i32.add
 0034bb: 24 80 80 80 80 00          | global.set 0
 0034c1: 20 01                      | local.get 1
 0034c3: 0b                         | end
0034c5 func[108] <get_debit_count>:
 0034c6: 01 7f                      | local[0] type=i32
 0034c8: 01 7e                      | local[1] type=i64
 0034ca: 23 80 80 80 80 00          | global.get 0
 0034d0: 41 10                      | i32.const 16
 0034d2: 6b                         | i32.sub
 0034d3: 22 00                      | local.tee 0
 0034d5: 24 80 80 80 80 00          | global.set 0
 0034db: 20 00                      | local.get 0
 0034dd: 41 9c 80 c0 80 00          | i32.const 1048604
 0034e3: 41 05                      | i32.const 5
 0034e5: 10 b7 80 80 80 00          | call 55
 0034eb: 20 00                      | local.get 0
 0034ed: 29 03 00                   | i64.load 3 0
 0034f0: 20 00                      | local.get 0
 0034f2: 29 03 08                   | i64.load 3 8
 0034f5: 10 a7 80 80 80 00          | call 39
 0034fb: 21 01                      | local.set 1
 0034fd: 20 00                      | local.get 0
 0034ff: 41 10                      | i32.const 16
 003501: 6a                         | i32.add
 003502: 24 80 80 80 80 00          | global.set 0
 003508: 20 01                      | local.get 1
 00350a: 0b                         | end
00350c func[109] <get_debit_amortization>:
 00350d: 02 7f                      | local[1..2] type=i32
 00350f: 23 80 80 80 80 00          | global.get 0
 003515: 41 10                      | i32.const 16
 003517: 6b                         | i32.sub
 003518: 22 01                      | local.tee 1
 00351a: 24 80 80 80 80 00          | global.set 0
 003520: 02 40                      | block
 003522: 20 00                      |   local.get 0
 003524: a7                         |   i32.wrap_i64
 003525: 41 ff 01                   |   i32.const 255
 003528: 71                         |   i32.and
 003529: 22 02                      |   local.tee 2
 00352b: 41 0e                      |   i32.const 14
 00352d: 46                         |   i32.eq
 00352e: 0d 00                      |   br_if 0
 003530: 20 02                      |   local.get 2
 003532: 41 ca 00                   |   i32.const 74
 003535: 46                         |   i32.eq
 003536: 0d 00                      |   br_if 0
 003538: 00                         |   unreachable
 003539: 0b                         | end
 00353a: 20 01                      | local.get 1
 00353c: 20 00                      | local.get 0
 00353e: 10 c5 80 80 80 00          | call 69
 003544: 20 01                      | local.get 1
 003546: 29 03 00                   | i64.load 3 0
 003549: 20 01                      | local.get 1
 00354b: 29 03 08                   | i64.load 3 8
 00354e: 10 a7 80 80 80 00          | call 39
 003554: 21 00                      | local.set 0
 003556: 20 01                      | local.get 1
 003558: 41 10                      | i32.const 16
 00355a: 6a                         | i32.add
 00355b: 24 80 80 80 80 00          | global.set 0
 003561: 20 00                      | local.get 0
 003563: 0b                         | end
003565 func[110] <get_debit_fee>:
 003566: 02 7f                      | local[1..2] type=i32
 003568: 23 80 80 80 80 00          | global.get 0
 00356e: 41 10                      | i32.const 16
 003570: 6b                         | i32.sub
 003571: 22 01                      | local.tee 1
 003573: 24 80 80 80 80 00          | global.set 0
 003579: 02 40                      | block
 00357b: 20 00                      |   local.get 0
 00357d: a7                         |   i32.wrap_i64
 00357e: 41 ff 01                   |   i32.const 255
 003581: 71                         |   i32.and
 003582: 22 02                      |   local.tee 2
 003584: 41 0e                      |   i32.const 14
 003586: 46                         |   i32.eq
 003587: 0d 00                      |   br_if 0
 003589: 20 02                      |   local.get 2
 00358b: 41 ca 00                   |   i32.const 74
 00358e: 46                         |   i32.eq
 00358f: 0d 00                      |   br_if 0
 003591: 00                         |   unreachable
 003592: 0b                         | end
 003593: 20 01                      | local.get 1
 003595: 20 00                      | local.get 0
 003597: 10 c6 80 80 80 00          | call 70
 00359d: 20 01                      | local.get 1
 00359f: 29 03 00                   | i64.load 3 0
 0035a2: 20 01                      | local.get 1
 0035a4: 29 03 08                   | i64.load 3 8
 0035a7: 10 a7 80 80 80 00          | call 39
 0035ad: 21 00                      | local.set 0
 0035af: 20 01                      | local.get 1
 0035b1: 41 10                      | i32.const 16
 0035b3: 6a                         | i32.add
 0035b4: 24 80 80 80 80 00          | global.set 0
 0035ba: 20 00                      | local.get 0
 0035bc: 0b                         | end
0035be func[111] <get_debit_success_fee>:
 0035bf: 02 7f                      | local[1..2] type=i32
 0035c1: 23 80 80 80 80 00          | global.get 0
 0035c7: 41 10                      | i32.const 16
 0035c9: 6b                         | i32.sub
 0035ca: 22 01                      | local.tee 1
 0035cc: 24 80 80 80 80 00          | global.set 0
 0035d2: 02 40                      | block
 0035d4: 20 00                      |   local.get 0
 0035d6: a7                         |   i32.wrap_i64
 0035d7: 41 ff 01                   |   i32.const 255
 0035da: 71                         |   i32.and
 0035db: 22 02                      |   local.tee 2
 0035dd: 41 0e                      |   i32.const 14
 0035df: 46                         |   i32.eq
 0035e0: 0d 00                      |   br_if 0
 0035e2: 20 02                      |   local.get 2
 0035e4: 41 ca 00                   |   i32.const 74
 0035e7: 46                         |   i32.eq
 0035e8: 0d 00                      |   br_if 0
 0035ea: 00                         |   unreachable
 0035eb: 0b                         | end
 0035ec: 20 01                      | local.get 1
 0035ee: 20 00                      | local.get 0
 0035f0: 10 c7 80 80 80 00          | call 71
 0035f6: 20 01                      | local.get 1
 0035f8: 29 03 00                   | i64.load 3 0
 0035fb: 20 01                      | local.get 1
 0035fd: 29 03 08                   | i64.load 3 8
 003600: 10 a7 80 80 80 00          | call 39
 003606: 21 00                      | local.set 0
 003608: 20 01                      | local.get 1
 00360a: 41 10                      | i32.const 16
 00360c: 6a                         | i32.add
 00360d: 24 80 80 80 80 00          | global.set 0
 003613: 20 00                      | local.get 0
 003615: 0b                         | end
003617 func[112] <get_debit_due_date>:
 003618: 02 7f                      | local[1..2] type=i32
 00361a: 23 80 80 80 80 00          | global.get 0
 003620: 41 10                      | i32.const 16
 003622: 6b                         | i32.sub
 003623: 22 01                      | local.tee 1
 003625: 24 80 80 80 80 00          | global.set 0
 00362b: 02 40                      | block
 00362d: 02 40                      |   block
 00362f: 20 00                      |     local.get 0
 003631: a7                         |     i32.wrap_i64
 003632: 41 ff 01                   |     i32.const 255
 003635: 71                         |     i32.and
 003636: 22 02                      |     local.tee 2
 003638: 41 0e                      |     i32.const 14
 00363a: 46                         |     i32.eq
 00363b: 0d 00                      |     br_if 0
 00363d: 20 02                      |     local.get 2
 00363f: 41 ca 00                   |     i32.const 74
 003642: 47                         |     i32.ne
 003643: 0d 01                      |     br_if 1
 003645: 0b                         |   end
 003646: 02 40                      |   block
 003648: 02 40                      |     block
 00364a: 41 fa 81 c0 80 00          |       i32.const 1048826
 003650: 41 09                      |       i32.const 9
 003652: 20 00                      |       local.get 0
 003654: 10 bc 80 80 80 00          |       call 60
 00365a: 22 00                      |       local.tee 0
 00365c: 50                         |       i64.eqz
 00365d: 45                         |       i32.eqz
 00365e: 0d 00                      |       br_if 0
 003660: 42 02                      |       i64.const 2
 003662: 21 00                      |       local.set 0
 003664: 0c 01                      |       br 1
 003666: 0b                         |     end
 003667: 20 01                      |     local.get 1
 003669: 20 00                      |     local.get 0
 00366b: 10 9a 80 80 80 00          |     call 26
 003671: 20 01                      |     local.get 1
 003673: 28 02 00                   |     i32.load 2 0
 003676: 41 01                      |     i32.const 1
 003678: 71                         |     i32.and
 003679: 0d 01                      |     br_if 1
 00367b: 20 01                      |     local.get 1
 00367d: 29 03 08                   |     i64.load 3 8
 003680: 21 00                      |     local.set 0
 003682: 0b                         |   end
 003683: 20 01                      |   local.get 1
 003685: 41 10                      |   i32.const 16
 003687: 6a                         |   i32.add
 003688: 24 80 80 80 80 00          |   global.set 0
 00368e: 20 00                      |   local.get 0
 003690: 0f                         |   return
 003691: 0b                         | end
 003692: 00                         | unreachable
 003693: 0b                         | end
003695 func[113] <is_debit_paid>:
 003696: 01 7f                      | local[1] type=i32
 003698: 02 40                      | block
 00369a: 20 00                      |   local.get 0
 00369c: a7                         |   i32.wrap_i64
 00369d: 41 ff 01                   |   i32.const 255
 0036a0: 71                         |   i32.and
 0036a1: 22 01                      |   local.tee 1
 0036a3: 41 0e                      |   i32.const 14
 0036a5: 46                         |   i32.eq
 0036a6: 0d 00                      |   br_if 0
 0036a8: 20 01                      |   local.get 1
 0036aa: 41 ca 00                   |   i32.const 74
 0036ad: 46                         |   i32.eq
 0036ae: 0d 00                      |   br_if 0
 0036b0: 00                         |   unreachable
 0036b1: 0b                         | end
 0036b2: 20 00                      | local.get 0
 0036b4: 10 be 80 80 80 00          | call 62
 0036ba: ad                         | i64.extend_i32_u
 0036bb: 0b                         | end
0036be func[114] <pay_debit_detailed>:
 0036bf: 02 7f                      | local[6..7] type=i32
 0036c1: 09 7e                      | local[8..16] type=i64
 0036c3: 23 80 80 80 80 00          | global.get 0
 0036c9: 41 20                      | i32.const 32
 0036cb: 6b                         | i32.sub
 0036cc: 22 06                      | local.tee 6
 0036ce: 24 80 80 80 80 00          | global.set 0
 0036d4: 02 40                      | block
 0036d6: 02 40                      |   block
 0036d8: 02 40                      |     block
 0036da: 02 40                      |       block
 0036dc: 20 00                      |         local.get 0
 0036de: 42 ff 01                   |         i64.const 255
 0036e1: 83                         |         i64.and
 0036e2: 42 cd 00                   |         i64.const 77
 0036e5: 52                         |         i64.ne
 0036e6: 0d 00                      |         br_if 0
 0036e8: 02 40                      |         block
 0036ea: 20 01                      |           local.get 1
 0036ec: a7                         |           i32.wrap_i64
 0036ed: 41 ff 01                   |           i32.const 255
 0036f0: 71                         |           i32.and
 0036f1: 22 07                      |           local.tee 7
 0036f3: 41 0e                      |           i32.const 14
 0036f5: 46                         |           i32.eq
 0036f6: 0d 00                      |           br_if 0
 0036f8: 20 07                      |           local.get 7
 0036fa: 41 ca 00                   |           i32.const 74
 0036fd: 47                         |           i32.ne
 0036fe: 0d 01                      |           br_if 1
 003700: 0b                         |         end
 003701: 20 06                      |         local.get 6
 003703: 20 02                      |         local.get 2
 003705: 10 9f 80 80 80 00          |         call 31
 00370b: 20 06                      |         local.get 6
 00370d: 28 02 00                   |         i32.load 2 0
 003710: 41 01                      |         i32.const 1
 003712: 46                         |         i32.eq
 003713: 0d 00                      |         br_if 0
 003715: 20 06                      |         local.get 6
 003717: 29 03 18                   |         i64.load 3 24
 00371a: 21 02                      |         local.set 2
 00371c: 20 06                      |         local.get 6
 00371e: 29 03 10                   |         i64.load 3 16
 003721: 21 08                      |         local.set 8
 003723: 20 06                      |         local.get 6
 003725: 20 03                      |         local.get 3
 003727: 10 9f 80 80 80 00          |         call 31
 00372d: 20 06                      |         local.get 6
 00372f: 28 02 00                   |         i32.load 2 0
 003732: 41 01                      |         i32.const 1
 003734: 46                         |         i32.eq
 003735: 0d 00                      |         br_if 0
 003737: 20 06                      |         local.get 6
 003739: 29 03 18                   |         i64.load 3 24
 00373c: 21 09                      |         local.set 9
 00373e: 20 06                      |         local.get 6
 003740: 29 03 10                   |         i64.load 3 16
 003743: 21 0a                      |         local.set 10
 003745: 20 06                      |         local.get 6
 003747: 20 04                      |         local.get 4
 003749: 10 9f 80 80 80 00          |         call 31
 00374f: 20 06                      |         local.get 6
 003751: 28 02 00                   |         i32.load 2 0
 003754: 41 01                      |         i32.const 1
 003756: 46                         |         i32.eq
 003757: 0d 00                      |         br_if 0
 003759: 20 06                      |         local.get 6
 00375b: 29 03 18                   |         i64.load 3 24
 00375e: 21 04                      |         local.set 4
 003760: 20 06                      |         local.get 6
 003762: 29 03 10                   |         i64.load 3 16
 003765: 21 0b                      |         local.set 11
 003767: 20 06                      |         local.get 6
 003769: 20 05                      |         local.get 5
 00376b: 10 9b 80 80 80 00          |         call 27
 003771: 20 06                      |         local.get 6
 003773: 28 02 00                   |         i32.load 2 0
 003776: 41 01                      |         i32.const 1
 003778: 46                         |         i32.eq
 003779: 0d 00                      |         br_if 0
 00377b: 20 06                      |         local.get 6
 00377d: 29 03 08                   |         i64.load 3 8
 003780: 21 03                      |         local.set 3
 003782: 02 40                      |         block
 003784: 20 00                      |           local.get 0
 003786: 10 ce 80 80 80 00          |           call 78
 00378c: 0d 00                      |           br_if 0
 00378e: 42 8e da b9 dd b9 d6 03    |           i64.const 16164573834510
 003796: 21 00                      |           local.set 0
 003798: 0c 04                      |           br 4
 00379a: 0b                         |         end
 00379b: 02 40                      |         block
 00379d: 20 01                      |           local.get 1
 00379f: 10 d3 80 80 80 00          |           call 83
 0037a5: 41 ff 01                   |           i32.const 255
 0037a8: 71                         |           i32.and
 0037a9: 22 07                      |           local.tee 7
 0037ab: 41 1f                      |           i32.const 31
 0037ad: 46                         |           i32.eq
 0037ae: 0d 00                      |           br_if 0
 0037b0: 20 07                      |           local.get 7
 0037b2: 41 03                      |           i32.const 3
 0037b4: 74                         |           i32.shl
 0037b5: 41 98 84 c0 80 00          |           i32.const 1049112
 0037bb: 6a                         |           i32.add
 0037bc: 29 03 00                   |           i64.load 3 0
 0037bf: 21 00                      |           local.set 0
 0037c1: 0c 04                      |           br 4
 0037c3: 0b                         |         end
 0037c4: 02 40                      |         block
 0037c6: 20 03                      |           local.get 3
 0037c8: 10 d0 80 80 80 00          |           call 80
 0037ce: 22 07                      |           local.tee 7
 0037d0: 41 ff 01                   |           i32.const 255
 0037d3: 71                         |           i32.and
 0037d4: 41 1f                      |           i32.const 31
 0037d6: 46                         |           i32.eq
 0037d7: 0d 00                      |           br_if 0
 0037d9: 20 07                      |           local.get 7
 0037db: 41 ff 01                   |           i32.const 255
 0037de: 71                         |           i32.and
 0037df: 41 03                      |           i32.const 3
 0037e1: 74                         |           i32.shl
 0037e2: 41 98 84 c0 80 00          |           i32.const 1049112
 0037e8: 6a                         |           i32.add
 0037e9: 29 03 00                   |           i64.load 3 0
 0037ec: 21 00                      |           local.set 0
 0037ee: 0c 04                      |           br 4
 0037f0: 0b                         |         end
 0037f1: 20 06                      |         local.get 6
 0037f3: 20 01                      |         local.get 1
 0037f5: 10 c5 80 80 80 00          |         call 69
 0037fb: 20 06                      |         local.get 6
 0037fd: 29 03 08                   |         i64.load 3 8
 003800: 21 00                      |         local.set 0
 003802: 20 06                      |         local.get 6
 003804: 29 03 00                   |         i64.load 3 0
 003807: 21 0c                      |         local.set 12
 003809: 20 06                      |         local.get 6
 00380b: 20 01                      |         local.get 1
 00380d: 10 c6 80 80 80 00          |         call 70
 003813: 20 06                      |         local.get 6
 003815: 29 03 08                   |         i64.load 3 8
 003818: 21 05                      |         local.set 5
 00381a: 20 06                      |         local.get 6
 00381c: 29 03 00                   |         i64.load 3 0
 00381f: 21 0d                      |         local.set 13
 003821: 20 06                      |         local.get 6
 003823: 20 01                      |         local.get 1
 003825: 10 c7 80 80 80 00          |         call 71
 00382b: 20 06                      |         local.get 6
 00382d: 29 03 08                   |         i64.load 3 8
 003830: 21 0e                      |         local.set 14
 003832: 20 06                      |         local.get 6
 003834: 29 03 00                   |         i64.load 3 0
 003837: 21 0f                      |         local.set 15
 003839: 02 40                      |         block
 00383b: 02 40                      |           block
 00383d: 20 01                      |             local.get 1
 00383f: 10 d3 80 80 80 00          |             call 83
 003845: 22 07                      |             local.tee 7
 003847: 41 ff 01                   |             i32.const 255
 00384a: 71                         |             i32.and
 00384b: 41 1f                      |             i32.const 31
 00384d: 47                         |             i32.ne
 00384e: 0d 00                      |             br_if 0
 003850: 41 00                      |             i32.const 0
 003852: 41 01                      |             i32.const 1
 003854: 41 1f                      |             i32.const 31
 003856: 20 08                      |             local.get 8
 003858: 42 e1 f5 d1 f0 fa a8 b8 bd |             i64.const 1475739525896764129
 003861: 14                         | 
 003862: 56                         |             i64.gt_u
 003863: 20 02                      |             local.get 2
 003865: 42 ae 8f 85 d7 c7 c2 eb a3 |             i64.const 92233720368547758
 00386e: 01                         | 
 00386f: 56                         |             i64.gt_u
 003870: 20 02                      |             local.get 2
 003872: 42 ae 8f 85 d7 c7 c2 eb a3 |             i64.const 92233720368547758
 00387b: 01                         | 
 00387c: 51                         |             i64.eq
 00387d: 1b                         |             select
 00387e: 1b                         |             select
 00387f: 20 08                      |             local.get 8
 003881: 50                         |             i64.eqz
 003882: 20 02                      |             local.get 2
 003884: 42 00                      |             i64.const 0
 003886: 53                         |             i64.lt_s
 003887: 20 02                      |             local.get 2
 003889: 50                         |             i64.eqz
 00388a: 1b                         |             select
 00388b: 1b                         |             select
 00388c: 22 07                      |             local.tee 7
 00388e: 41 1f                      |             i32.const 31
 003890: 47                         |             i32.ne
 003891: 0d 00                      |             br_if 0
 003893: 41 00                      |             i32.const 0
 003895: 41 01                      |             i32.const 1
 003897: 41 1f                      |             i32.const 31
 003899: 20 0a                      |             local.get 10
 00389b: 42 e1 f5 d1 f0 fa a8 b8 bd |             i64.const 1475739525896764129
 0038a4: 14                         | 
 0038a5: 56                         |             i64.gt_u
 0038a6: 20 09                      |             local.get 9
 0038a8: 42 ae 8f 85 d7 c7 c2 eb a3 |             i64.const 92233720368547758
 0038b1: 01                         | 
 0038b2: 56                         |             i64.gt_u
 0038b3: 20 09                      |             local.get 9
 0038b5: 42 ae 8f 85 d7 c7 c2 eb a3 |             i64.const 92233720368547758
 0038be: 01                         | 
 0038bf: 51                         |             i64.eq
 0038c0: 1b                         |             select
 0038c1: 1b                         |             select
 0038c2: 20 0a                      |             local.get 10
 0038c4: 50                         |             i64.eqz
 0038c5: 20 09                      |             local.get 9
 0038c7: 42 00                      |             i64.const 0
 0038c9: 53                         |             i64.lt_s
 0038ca: 20 09                      |             local.get 9
 0038cc: 50                         |             i64.eqz
 0038cd: 1b                         |             select
 0038ce: 1b                         |             select
 0038cf: 22 07                      |             local.tee 7
 0038d1: 41 1f                      |             i32.const 31
 0038d3: 47                         |             i32.ne
 0038d4: 0d 00                      |             br_if 0
 0038d6: 02 40                      |             block
 0038d8: 20 04                      |               local.get 4
 0038da: 42 00                      |               i64.const 0
 0038dc: 59                         |               i64.ge_s
 0038dd: 0d 00                      |               br_if 0
 0038df: 41 00                      |               i32.const 0
 0038e1: 21 07                      |               local.set 7
 0038e3: 0c 01                      |               br 1
 0038e5: 0b                         |             end
 0038e6: 02 40                      |             block
 0038e8: 20 0b                      |               local.get 11
 0038ea: 42 e1 f5 d1 f0 fa a8 b8 bd |               i64.const 1475739525896764129
 0038f3: 14                         | 
 0038f4: 56                         |               i64.gt_u
 0038f5: 20 04                      |               local.get 4
 0038f7: 42 ae 8f 85 d7 c7 c2 eb a3 |               i64.const 92233720368547758
 003900: 01                         | 
 003901: 56                         |               i64.gt_u
 003902: 20 04                      |               local.get 4
 003904: 42 ae 8f 85 d7 c7 c2 eb a3 |               i64.const 92233720368547758
 00390d: 01                         | 
 00390e: 51                         |               i64.eq
 00390f: 1b                         |               select
 003910: 45                         |               i32.eqz
 003911: 0d 00                      |               br_if 0
 003913: 41 01                      |               i32.const 1
 003915: 21 07                      |               local.set 7
 003917: 0c 01                      |               br 1
 003919: 0b                         |             end
 00391a: 41 0a                      |             i32.const 10
 00391c: 21 07                      |             local.set 7
 00391e: 20 08                      |             local.get 8
 003920: 20 0c                      |             local.get 12
 003922: 56                         |             i64.gt_u
 003923: 20 02                      |             local.get 2
 003925: 20 00                      |             local.get 0
 003927: 55                         |             i64.gt_s
 003928: 20 02                      |             local.get 2
 00392a: 20 00                      |             local.get 0
 00392c: 51                         |             i64.eq
 00392d: 1b                         |             select
 00392e: 0d 00                      |             br_if 0
 003930: 20 0a                      |             local.get 10
 003932: 20 0d                      |             local.get 13
 003934: 56                         |             i64.gt_u
 003935: 20 09                      |             local.get 9
 003937: 20 05                      |             local.get 5
 003939: 55                         |             i64.gt_s
 00393a: 20 09                      |             local.get 9
 00393c: 20 05                      |             local.get 5
 00393e: 51                         |             i64.eq
 00393f: 1b                         |             select
 003940: 0d 00                      |             br_if 0
 003942: 20 0b                      |             local.get 11
 003944: 20 0f                      |             local.get 15
 003946: 56                         |             i64.gt_u
 003947: 20 04                      |             local.get 4
 003949: 20 0e                      |             local.get 14
 00394b: 55                         |             i64.gt_s
 00394c: 20 04                      |             local.get 4
 00394e: 20 0e                      |             local.get 14
 003950: 51                         |             i64.eq
 003951: 1b                         |             select
 003952: 0d 00                      |             br_if 0
 003954: 20 03                      |             local.get 3
 003956: 10 d0 80 80 80 00          |             call 80
 00395c: 22 07                      |             local.tee 7
 00395e: 41 ff 01                   |             i32.const 255
 003961: 71                         |             i32.and
 003962: 41 1f                      |             i32.const 31
 003964: 46                         |             i32.eq
 003965: 0d 01                      |             br_if 1
 003967: 0b                         |           end
 003968: 20 07                      |           local.get 7
 00396a: 41 ff 01                   |           i32.const 255
 00396d: 71                         |           i32.and
 00396e: 41 03                      |           i32.const 3
 003970: 74                         |           i32.shl
 003971: 41 98 84 c0 80 00          |           i32.const 1049112
 003977: 6a                         |           i32.add
 003978: 29 03 00                   |           i64.load 3 0
 00397b: 21 00                      |           local.set 0
 00397d: 0c 04                      |           br 4
 00397f: 0b                         |         end
 003980: 20 06                      |         local.get 6
 003982: 41 d3 81 c0 80 00          |         i32.const 1048787
 003988: 41 09                      |         i32.const 9
 00398a: 20 01                      |         local.get 1
 00398c: 10 ba 80 80 80 00          |         call 58
 003992: 02 40                      |         block
 003994: 20 06                      |           local.get 6
 003996: 29 03 00                   |           i64.load 3 0
 003999: 22 0e                      |           local.tee 14
 00399b: 20 06                      |           local.get 6
 00399d: 29 03 08                   |           i64.load 3 8
 0039a0: 22 05                      |           local.tee 5
 0039a2: 84                         |           i64.or
 0039a3: 50                         |           i64.eqz
 0039a4: 45                         |           i32.eqz
 0039a5: 0d 00                      |           br_if 0
 0039a7: 42 8e d2 b3 9d bd cd d3 e7 |           i64.const 58351545198897422
 0039b0: 00                         | 
 0039b1: 21 00                      |           local.set 0
 0039b3: 0c 04                      |           br 4
 0039b5: 0b                         |         end
 0039b6: 02 40                      |         block
 0039b8: 20 01                      |           local.get 1
 0039ba: 10 be 80 80 80 00          |           call 62
 0039c0: 45                         |           i32.eqz
 0039c1: 0d 00                      |           br_if 0
 0039c3: 42 8e d2 ae b3 9d bd c7 cd |           i64.const 43661511552117006
 0039cc: 00                         | 
 0039cd: 21 00                      |           local.set 0
 0039cf: 0c 04                      |           br 4
 0039d1: 0b                         |         end
 0039d2: 20 06                      |         local.get 6
 0039d4: 41 dc 81 c0 80 00          |         i32.const 1048796
 0039da: 41 0b                      |         i32.const 11
 0039dc: 20 01                      |         local.get 1
 0039de: 10 ba 80 80 80 00          |         call 58
 0039e4: 20 06                      |         local.get 6
 0039e6: 29 03 08                   |         i64.load 3 8
 0039e9: 21 0c                      |         local.set 12
 0039eb: 20 06                      |         local.get 6
 0039ed: 29 03 00                   |         i64.load 3 0
 0039f0: 21 0f                      |         local.set 15
 0039f2: 20 06                      |         local.get 6
 0039f4: 41 e7 81 c0 80 00          |         i32.const 1048807
 0039fa: 41 09                      |         i32.const 9
 0039fc: 20 01                      |         local.get 1
 0039fe: 10 ba 80 80 80 00          |         call 58
 003a04: 20 06                      |         local.get 6
 003a06: 29 03 08                   |         i64.load 3 8
 003a09: 21 0d                      |         local.set 13
 003a0b: 20 06                      |         local.get 6
 003a0d: 29 03 00                   |         i64.load 3 0
 003a10: 21 10                      |         local.set 16
 003a12: 20 06                      |         local.get 6
 003a14: 41 f0 81 c0 80 00          |         i32.const 1048816
 003a1a: 41 0a                      |         i32.const 10
 003a1c: 20 01                      |         local.get 1
 003a1e: 10 ba 80 80 80 00          |         call 58
 003a24: 42 8e d2 ee d8 b9 9f bb 01 |         i64.const 823515336648974
 003a2d: 21 00                      |         local.set 0
 003a2f: 20 09                      |         local.get 9
 003a31: 20 02                      |         local.get 2
 003a33: 84                         |         i64.or
 003a34: 20 04                      |         local.get 4
 003a36: 84                         |         i64.or
 003a37: 42 00                      |         i64.const 0
 003a39: 53                         |         i64.lt_s
 003a3a: 0d 03                      |         br_if 3
 003a3c: 20 08                      |         local.get 8
 003a3e: 20 0f                      |         local.get 15
 003a40: 56                         |         i64.gt_u
 003a41: 20 02                      |         local.get 2
 003a43: 20 0c                      |         local.get 12
 003a45: 55                         |         i64.gt_s
 003a46: 20 02                      |         local.get 2
 003a48: 20 0c                      |         local.get 12
 003a4a: 51                         |         i64.eq
 003a4b: 1b                         |         select
 003a4c: 0d 03                      |         br_if 3
 003a4e: 20 0a                      |         local.get 10
 003a50: 20 10                      |         local.get 16
 003a52: 56                         |         i64.gt_u
 003a53: 20 09                      |         local.get 9
 003a55: 20 0d                      |         local.get 13
 003a57: 55                         |         i64.gt_s
 003a58: 20 09                      |         local.get 9
 003a5a: 20 0d                      |         local.get 13
 003a5c: 51                         |         i64.eq
 003a5d: 1b                         |         select
 003a5e: 0d 03                      |         br_if 3
 003a60: 20 0b                      |         local.get 11
 003a62: 20 06                      |         local.get 6
 003a64: 29 03 00                   |         i64.load 3 0
 003a67: 56                         |         i64.gt_u
 003a68: 20 04                      |         local.get 4
 003a6a: 20 06                      |         local.get 6
 003a6c: 29 03 08                   |         i64.load 3 8
 003a6f: 22 0c                      |         local.tee 12
 003a71: 55                         |         i64.gt_s
 003a72: 20 04                      |         local.get 4
 003a74: 20 0c                      |         local.get 12
 003a76: 51                         |         i64.eq
 003a77: 1b                         |         select
 003a78: 0d 03                      |         br_if 3
 003a7a: 20 02                      |         local.get 2
 003a7c: 20 09                      |         local.get 9
 003a7e: 85                         |         i64.xor
 003a7f: 42 7f                      |         i64.const 18446744073709551615
 003a81: 85                         |         i64.xor
 003a82: 20 02                      |         local.get 2
 003a84: 20 02                      |         local.get 2
 003a86: 20 09                      |         local.get 9
 003a88: 7c                         |         i64.add
 003a89: 20 08                      |         local.get 8
 003a8b: 20 0a                      |         local.get 10
 003a8d: 7c                         |         i64.add
 003a8e: 22 0d                      |         local.tee 13
 003a90: 20 08                      |         local.get 8
 003a92: 54                         |         i64.lt_u
 003a93: ad                         |         i64.extend_i32_u
 003a94: 7c                         |         i64.add
 003a95: 22 0c                      |         local.tee 12
 003a97: 85                         |         i64.xor
 003a98: 83                         |         i64.and
 003a99: 42 00                      |         i64.const 0
 003a9b: 53                         |         i64.lt_s
 003a9c: 0d 01                      |         br_if 1
 003a9e: 20 0c                      |         local.get 12
 003aa0: 20 04                      |         local.get 4
 003aa2: 85                         |         i64.xor
 003aa3: 42 7f                      |         i64.const 18446744073709551615
 003aa5: 85                         |         i64.xor
 003aa6: 20 0c                      |         local.get 12
 003aa8: 20 0c                      |         local.get 12
 003aaa: 20 04                      |         local.get 4
 003aac: 7c                         |         i64.add
 003aad: 20 0d                      |         local.get 13
 003aaf: 20 0b                      |         local.get 11
 003ab1: 7c                         |         i64.add
 003ab2: 22 0b                      |         local.tee 11
 003ab4: 20 0d                      |         local.get 13
 003ab6: 54                         |         i64.lt_u
 003ab7: ad                         |         i64.extend_i32_u
 003ab8: 7c                         |         i64.add
 003ab9: 22 04                      |         local.tee 4
 003abb: 85                         |         i64.xor
 003abc: 83                         |         i64.and
 003abd: 42 00                      |         i64.const 0
 003abf: 53                         |         i64.lt_s
 003ac0: 0d 01                      |         br_if 1
 003ac2: 20 0b                      |         local.get 11
 003ac4: 20 0e                      |         local.get 14
 003ac6: 56                         |         i64.gt_u
 003ac7: 20 04                      |         local.get 4
 003ac9: 20 05                      |         local.get 5
 003acb: 55                         |         i64.gt_s
 003acc: 20 04                      |         local.get 4
 003ace: 20 05                      |         local.get 5
 003ad0: 51                         |         i64.eq
 003ad1: 1b                         |         select
 003ad2: 0d 03                      |         br_if 3
 003ad4: 20 06                      |         local.get 6
 003ad6: 41 98 82 c0 80 00          |         i32.const 1048856
 003adc: 41 0b                      |         i32.const 11
 003ade: 20 01                      |         local.get 1
 003ae0: 10 ba 80 80 80 00          |         call 58
 003ae6: 20 06                      |         local.get 6
 003ae8: 29 03 08                   |         i64.load 3 8
 003aeb: 22 0f                      |         local.tee 15
 003aed: 20 04                      |         local.get 4
 003aef: 85                         |         i64.xor
 003af0: 42 7f                      |         i64.const 18446744073709551615
 003af2: 85                         |         i64.xor
 003af3: 20 0f                      |         local.get 15
 003af5: 20 0f                      |         local.get 15
 003af7: 20 04                      |         local.get 4
 003af9: 7c                         |         i64.add
 003afa: 20 06                      |         local.get 6
 003afc: 29 03 00                   |         i64.load 3 0
 003aff: 22 00                      |         local.tee 0
 003b01: 20 0b                      |         local.get 11
 003b03: 7c                         |         i64.add
 003b04: 22 10                      |         local.tee 16
 003b06: 20 00                      |         local.get 0
 003b08: 54                         |         i64.lt_u
 003b09: ad                         |         i64.extend_i32_u
 003b0a: 7c                         |         i64.add
 003b0b: 22 00                      |         local.tee 0
 003b0d: 85                         |         i64.xor
 003b0e: 83                         |         i64.and
 003b0f: 42 00                      |         i64.const 0
 003b11: 53                         |         i64.lt_s
 003b12: 0d 01                      |         br_if 1
 003b14: 41 98 82 c0 80 00          |         i32.const 1048856
 003b1a: 41 0b                      |         i32.const 11
 003b1c: 20 01                      |         local.get 1
 003b1e: 20 10                      |         local.get 16
 003b20: 20 00                      |         local.get 0
 003b22: 10 bb 80 80 80 00          |         call 59
 003b28: 41 8d 82 c0 80 00          |         i32.const 1048845
 003b2e: 41 0b                      |         i32.const 11
 003b30: 20 01                      |         local.get 1
 003b32: 20 03                      |         local.get 3
 003b34: 10 bd 80 80 80 00          |         call 61
 003b3a: 20 06                      |         local.get 6
 003b3c: 41 97 80 c0 80 00          |         i32.const 1048599
 003b42: 41 05                      |         i32.const 5
 003b44: 10 b7 80 80 80 00          |         call 55
 003b4a: 20 06                      |         local.get 6
 003b4c: 29 03 08                   |         i64.load 3 8
 003b4f: 22 03                      |         local.tee 3
 003b51: 20 04                      |         local.get 4
 003b53: 85                         |         i64.xor
 003b54: 42 7f                      |         i64.const 18446744073709551615
 003b56: 85                         |         i64.xor
 003b57: 20 03                      |         local.get 3
 003b59: 20 03                      |         local.get 3
 003b5b: 20 04                      |         local.get 4
 003b5d: 7c                         |         i64.add
 003b5e: 20 06                      |         local.get 6
 003b60: 29 03 00                   |         i64.load 3 0
 003b63: 22 04                      |         local.tee 4
 003b65: 20 0b                      |         local.get 11
 003b67: 7c                         |         i64.add
 003b68: 22 0b                      |         local.tee 11
 003b6a: 20 04                      |         local.get 4
 003b6c: 54                         |         i64.lt_u
 003b6d: ad                         |         i64.extend_i32_u
 003b6e: 7c                         |         i64.add
 003b6f: 22 04                      |         local.tee 4
 003b71: 85                         |         i64.xor
 003b72: 83                         |         i64.and
 003b73: 42 00                      |         i64.const 0
 003b75: 53                         |         i64.lt_s
 003b76: 0d 01                      |         br_if 1
 003b78: 41 97 80 c0 80 00          |         i32.const 1048599
 003b7e: 41 05                      |         i32.const 5
 003b80: 20 0b                      |         local.get 11
 003b82: 20 04                      |         local.get 4
 003b84: 10 b8 80 80 80 00          |         call 56
 003b8a: 20 06                      |         local.get 6
 003b8c: 41 b5 80 c0 80 00          |         i32.const 1048629
 003b92: 41 07                      |         i32.const 7
 003b94: 10 b7 80 80 80 00          |         call 55
 003b9a: 20 06                      |         local.get 6
 003b9c: 29 03 08                   |         i64.load 3 8
 003b9f: 22 03                      |         local.tee 3
 003ba1: 20 09                      |         local.get 9
 003ba3: 85                         |         i64.xor
 003ba4: 42 7f                      |         i64.const 18446744073709551615
 003ba6: 85                         |         i64.xor
 003ba7: 20 03                      |         local.get 3
 003ba9: 20 03                      |         local.get 3
 003bab: 20 09                      |         local.get 9
 003bad: 7c                         |         i64.add
 003bae: 20 06                      |         local.get 6
 003bb0: 29 03 00                   |         i64.load 3 0
 003bb3: 22 04                      |         local.tee 4
 003bb5: 20 0a                      |         local.get 10
 003bb7: 7c                         |         i64.add
 003bb8: 22 0b                      |         local.tee 11
 003bba: 20 04                      |         local.get 4
 003bbc: 54                         |         i64.lt_u
 003bbd: ad                         |         i64.extend_i32_u
 003bbe: 7c                         |         i64.add
 003bbf: 22 04                      |         local.tee 4
 003bc1: 85                         |         i64.xor
 003bc2: 83                         |         i64.and
 003bc3: 42 00                      |         i64.const 0
 003bc5: 53                         |         i64.lt_s
 003bc6: 0d 01                      |         br_if 1
 003bc8: 41 b5 80 c0 80 00          |         i32.const 1048629
 003bce: 41 07                      |         i32.const 7
 003bd0: 20 0b                      |         local.get 11
 003bd2: 20 04                      |         local.get 4
 003bd4: 10 b8 80 80 80 00          |         call 56
 003bda: 20 06                      |         local.get 6
 003bdc: 41 bc 80 c0 80 00          |         i32.const 1048636
 003be2: 41 08                      |         i32.const 8
 003be4: 10 b7 80 80 80 00          |         call 55
 003bea: 20 06                      |         local.get 6
 003bec: 29 03 08                   |         i64.load 3 8
 003bef: 22 03                      |         local.tee 3
 003bf1: 20 02                      |         local.get 2
 003bf3: 85                         |         i64.xor
 003bf4: 42 7f                      |         i64.const 18446744073709551615
 003bf6: 85                         |         i64.xor
 003bf7: 20 03                      |         local.get 3
 003bf9: 20 03                      |         local.get 3
 003bfb: 20 02                      |         local.get 2
 003bfd: 7c                         |         i64.add
 003bfe: 20 06                      |         local.get 6
 003c00: 29 03 00                   |         i64.load 3 0
 003c03: 22 04                      |         local.tee 4
 003c05: 20 08                      |         local.get 8
 003c07: 7c                         |         i64.add
 003c08: 22 0b                      |         local.tee 11
 003c0a: 20 04                      |         local.get 4
 003c0c: 54                         |         i64.lt_u
 003c0d: ad                         |         i64.extend_i32_u
 003c0e: 7c                         |         i64.add
 003c0f: 22 04                      |         local.tee 4
 003c11: 85                         |         i64.xor
 003c12: 83                         |         i64.and
 003c13: 42 00                      |         i64.const 0
 003c15: 53                         |         i64.lt_s
 003c16: 0d 01                      |         br_if 1
 003c18: 41 bc 80 c0 80 00          |         i32.const 1048636
 003c1e: 41 08                      |         i32.const 8
 003c20: 20 0b                      |         local.get 11
 003c22: 20 04                      |         local.get 4
 003c24: 10 b8 80 80 80 00          |         call 56
 003c2a: 20 0d                      |         local.get 13
 003c2c: 42 00                      |         i64.const 0
 003c2e: 52                         |         i64.ne
 003c2f: 20 0c                      |         local.get 12
 003c31: 42 00                      |         i64.const 0
 003c33: 55                         |         i64.gt_s
 003c34: 20 0c                      |         local.get 12
 003c36: 50                         |         i64.eqz
 003c37: 1b                         |         select
 003c38: 45                         |         i32.eqz
 003c39: 0d 02                      |         br_if 2
 003c3b: 20 0d                      |         local.get 13
 003c3d: 20 0c                      |         local.get 12
 003c3f: 20 0a                      |         local.get 10
 003c41: 20 09                      |         local.get 9
 003c43: 20 08                      |         local.get 8
 003c45: 20 02                      |         local.get 2
 003c47: 10 cc 80 80 80 00          |         call 76
 003c4d: 1a                         |         drop
 003c4e: 0c 02                      |         br 2
 003c50: 0b                         |       end
 003c51: 00                         |       unreachable
 003c52: 0b                         |     end
 003c53: 10 c1 80 80 80 00          |     call 65
 003c59: 00                         |     unreachable
 003c5a: 0b                         |   end
 003c5b: 02 40                      |   block
 003c5d: 20 10                      |     local.get 16
 003c5f: 20 0e                      |     local.get 14
 003c61: 54                         |     i64.lt_u
 003c62: 20 00                      |     local.get 0
 003c64: 20 05                      |     local.get 5
 003c66: 53                         |     i64.lt_s
 003c67: 20 00                      |     local.get 0
 003c69: 20 05                      |     local.get 5
 003c6b: 51                         |     i64.eq
 003c6c: 1b                         |     select
 003c6d: 45                         |     i32.eqz
 003c6e: 0d 00                      |     br_if 0
 003c70: 42 8e e2 a6 b7 fe b6 d6 01 |     i64.const 943071318094094
 003c79: 21 00                      |     local.set 0
 003c7b: 0c 01                      |     br 1
 003c7d: 0b                         |   end
 003c7e: 20 01                      |   local.get 1
 003c80: 41 01                      |   i32.const 1
 003c82: 10 bf 80 80 80 00          |   call 63
 003c88: 42 8e d2 ae b3 9d 8e eb d7 |   i64.const 49447725853026574
 003c91: 00                         | 
 003c92: 21 00                      |   local.set 0
 003c94: 0b                         | end
 003c95: 20 06                      | local.get 6
 003c97: 41 20                      | i32.const 32
 003c99: 6a                         | i32.add
 003c9a: 24 80 80 80 80 00          | global.set 0
 003ca0: 20 00                      | local.get 0
 003ca2: 0b                         | end
003ca5 func[115] <is_debit_overdue>:
 003ca6: 02 7f                      | local[2..3] type=i32
 003ca8: 01 7e                      | local[4] type=i64
 003caa: 23 80 80 80 80 00          | global.get 0
 003cb0: 41 10                      | i32.const 16
 003cb2: 6b                         | i32.sub
 003cb3: 22 02                      | local.tee 2
 003cb5: 24 80 80 80 80 00          | global.set 0
 003cbb: 02 40                      | block
 003cbd: 02 40                      |   block
 003cbf: 20 00                      |     local.get 0
 003cc1: a7                         |     i32.wrap_i64
 003cc2: 41 ff 01                   |     i32.const 255
 003cc5: 71                         |     i32.and
 003cc6: 22 03                      |     local.tee 3
 003cc8: 41 0e                      |     i32.const 14
 003cca: 46                         |     i32.eq
 003ccb: 0d 00                      |     br_if 0
 003ccd: 20 03                      |     local.get 3
 003ccf: 41 ca 00                   |     i32.const 74
 003cd2: 47                         |     i32.ne
 003cd3: 0d 01                      |     br_if 1
 003cd5: 0b                         |   end
 003cd6: 20 02                      |   local.get 2
 003cd8: 20 01                      |   local.get 1
 003cda: 10 9b 80 80 80 00          |   call 27
 003ce0: 20 02                      |   local.get 2
 003ce2: 28 02 00                   |   i32.load 2 0
 003ce5: 41 01                      |   i32.const 1
 003ce7: 46                         |   i32.eq
 003ce8: 0d 00                      |   br_if 0
 003cea: 20 02                      |   local.get 2
 003cec: 29 03 08                   |   i64.load 3 8
 003cef: 21 01                      |   local.set 1
 003cf1: 02 40                      |   block
 003cf3: 02 40                      |     block
 003cf5: 41 fa 81 c0 80 00          |       i32.const 1048826
 003cfb: 41 09                      |       i32.const 9
 003cfd: 20 00                      |       local.get 0
 003cff: 10 bc 80 80 80 00          |       call 60
 003d05: 22 04                      |       local.tee 4
 003d07: 50                         |       i64.eqz
 003d08: 45                         |       i32.eqz
 003d09: 0d 00                      |       br_if 0
 003d0b: 42 8e d4 fa 94 bd 06       |       i64.const 222576945678
 003d12: 21 00                      |       local.set 0
 003d14: 0c 01                      |       br 1
 003d16: 0b                         |     end
 003d17: 02 40                      |     block
 003d19: 20 00                      |       local.get 0
 003d1b: 10 be 80 80 80 00          |       call 62
 003d21: 45                         |       i32.eqz
 003d22: 0d 00                      |       br_if 0
 003d24: 42 8e d2 ae b3 0d          |       i64.const 3597379854
 003d2a: 21 00                      |       local.set 0
 003d2c: 0c 01                      |       br 1
 003d2e: 0b                         |     end
 003d2f: 42 8e d4 fa f4 ad dd d3 01 |     i64.const 931195594385934
 003d38: 42 8e d4 b2 b7 be a6 03    |     i64.const 14516568762894
 003d40: 20 01                      |     local.get 1
 003d42: 20 04                      |     local.get 4
 003d44: 56                         |     i64.gt_u
 003d45: 1b                         |     select
 003d46: 21 00                      |     local.set 0
 003d48: 0b                         |   end
 003d49: 20 02                      |   local.get 2
 003d4b: 41 10                      |   i32.const 16
 003d4d: 6a                         |   i32.add
 003d4e: 24 80 80 80 80 00          |   global.set 0
 003d54: 20 00                      |   local.get 0
 003d56: 0f                         |   return
 003d57: 0b                         | end
 003d58: 00                         | unreachable
 003d59: 0b                         | end
003d5c func[116] <get_debit_detailed>:
 003d5d: 02 7f                      | local[1..2] type=i32
 003d5f: 07 7e                      | local[3..9] type=i64
 003d61: 23 80 80 80 80 00          | global.get 0
 003d67: 41 e0 00                   | i32.const 96
 003d6a: 6b                         | i32.sub
 003d6b: 22 01                      | local.tee 1
 003d6d: 24 80 80 80 80 00          | global.set 0
 003d73: 02 40                      | block
 003d75: 02 40                      |   block
 003d77: 02 40                      |     block
 003d79: 20 00                      |       local.get 0
 003d7b: a7                         |       i32.wrap_i64
 003d7c: 41 ff 01                   |       i32.const 255
 003d7f: 71                         |       i32.and
 003d80: 22 02                      |       local.tee 2
 003d82: 41 0e                      |       i32.const 14
 003d84: 46                         |       i32.eq
 003d85: 0d 00                      |       br_if 0
 003d87: 20 02                      |       local.get 2
 003d89: 41 ca 00                   |       i32.const 74
 003d8c: 47                         |       i32.ne
 003d8d: 0d 01                      |       br_if 1
 003d8f: 0b                         |     end
 003d90: 20 01                      |     local.get 1
 003d92: 41 30                      |     i32.const 48
 003d94: 6a                         |     i32.add
 003d95: 41 d3 81 c0 80 00          |     i32.const 1048787
 003d9b: 41 09                      |     i32.const 9
 003d9d: 20 00                      |     local.get 0
 003d9f: 10 ba 80 80 80 00          |     call 58
 003da5: 02 40                      |     block
 003da7: 20 01                      |       local.get 1
 003da9: 29 03 30                   |       i64.load 3 48
 003dac: 20 01                      |       local.get 1
 003dae: 29 03 38                   |       i64.load 3 56
 003db1: 84                         |       i64.or
 003db2: 42 00                      |       i64.const 0
 003db4: 52                         |       i64.ne
 003db5: 0d 00                      |       br_if 0
 003db7: 20 01                      |       local.get 1
 003db9: 41 ea 82 c0 80 00          |       i32.const 1048938
 003dbf: 41 09                      |       i32.const 9
 003dc1: 10 cd 80 80 80 00          |       call 77
 003dc7: 37 03 30                   |       i64.store 3 48
 003dca: 20 01                      |       local.get 1
 003dcc: 41 30                      |       i32.const 48
 003dce: 6a                         |       i32.add
 003dcf: 41 01                      |       i32.const 1
 003dd1: 10 b0 80 80 80 00          |       call 48
 003dd7: 21 00                      |       local.set 0
 003dd9: 0c 02                      |       br 2
 003ddb: 0b                         |     end
 003ddc: 20 01                      |     local.get 1
 003dde: 41 30                      |     i32.const 48
 003de0: 6a                         |     i32.add
 003de1: 41 dc 81 c0 80 00          |     i32.const 1048796
 003de7: 41 0b                      |     i32.const 11
 003de9: 20 00                      |     local.get 0
 003deb: 10 ba 80 80 80 00          |     call 58
 003df1: 20 01                      |     local.get 1
 003df3: 29 03 30                   |     i64.load 3 48
 003df6: 21 03                      |     local.set 3
 003df8: 20 01                      |     local.get 1
 003dfa: 29 03 38                   |     i64.load 3 56
 003dfd: 21 04                      |     local.set 4
 003dff: 20 01                      |     local.get 1
 003e01: 41 30                      |     i32.const 48
 003e03: 6a                         |     i32.add
 003e04: 41 e7 81 c0 80 00          |     i32.const 1048807
 003e0a: 41 09                      |     i32.const 9
 003e0c: 20 00                      |     local.get 0
 003e0e: 10 ba 80 80 80 00          |     call 58
 003e14: 20 01                      |     local.get 1
 003e16: 29 03 38                   |     i64.load 3 56
 003e19: 21 05                      |     local.set 5
 003e1b: 20 01                      |     local.get 1
 003e1d: 29 03 30                   |     i64.load 3 48
 003e20: 21 06                      |     local.set 6
 003e22: 20 01                      |     local.get 1
 003e24: 41 30                      |     i32.const 48
 003e26: 6a                         |     i32.add
 003e27: 41 f0 81 c0 80 00          |     i32.const 1048816
 003e2d: 41 0a                      |     i32.const 10
 003e2f: 20 00                      |     local.get 0
 003e31: 10 ba 80 80 80 00          |     call 58
 003e37: 20 01                      |     local.get 1
 003e39: 29 03 38                   |     i64.load 3 56
 003e3c: 21 07                      |     local.set 7
 003e3e: 20 01                      |     local.get 1
 003e40: 29 03 30                   |     i64.load 3 48
 003e43: 21 08                      |     local.set 8
 003e45: 20 00                      |     local.get 0
 003e47: 10 be 80 80 80 00          |     call 62
 003e4d: 21 02                      |     local.set 2
 003e4f: 20 01                      |     local.get 1
 003e51: 41 30                      |     i32.const 48
 003e53: 6a                         |     i32.add
 003e54: 41 98 82 c0 80 00          |     i32.const 1048856
 003e5a: 41 0b                      |     i32.const 11
 003e5c: 20 00                      |     local.get 0
 003e5e: 10 ba 80 80 80 00          |     call 58
 003e64: 20 01                      |     local.get 1
 003e66: 29 03 38                   |     i64.load 3 56
 003e69: 21 00                      |     local.set 0
 003e6b: 20 01                      |     local.get 1
 003e6d: 29 03 30                   |     i64.load 3 48
 003e70: 21 09                      |     local.set 9
 003e72: 02 40                      |     block
 003e74: 02 40                      |       block
 003e76: 20 03                      |         local.get 3
 003e78: 42 00                      |         i64.const 0
 003e7a: 52                         |         i64.ne
 003e7b: 20 04                      |         local.get 4
 003e7d: 42 00                      |         i64.const 0
 003e7f: 55                         |         i64.gt_s
 003e80: 20 04                      |         local.get 4
 003e82: 50                         |         i64.eqz
 003e83: 1b                         |         select
 003e84: 0d 00                      |         br_if 0
 003e86: 41 f3 82 c0 80 00          |         i32.const 1048947
 003e8c: 41 08                      |         i32.const 8
 003e8e: 10 cd 80 80 80 00          |         call 77
 003e94: 21 04                      |         local.set 4
 003e96: 0c 01                      |         br 1
 003e98: 0b                         |       end
 003e99: 41 fb 82 c0 80 00          |       i32.const 1048955
 003e9f: 41 09                      |       i32.const 9
 003ea1: 10 cd 80 80 80 00          |       call 77
 003ea7: 21 04                      |       local.set 4
 003ea9: 0b                         |     end
 003eaa: 02 40                      |     block
 003eac: 02 40                      |       block
 003eae: 20 06                      |         local.get 6
 003eb0: 42 00                      |         i64.const 0
 003eb2: 52                         |         i64.ne
 003eb3: 20 05                      |         local.get 5
 003eb5: 42 00                      |         i64.const 0
 003eb7: 55                         |         i64.gt_s
 003eb8: 20 05                      |         local.get 5
 003eba: 50                         |         i64.eqz
 003ebb: 1b                         |         select
 003ebc: 0d 00                      |         br_if 0
 003ebe: 41 84 83 c0 80 00          |         i32.const 1048964
 003ec4: 41 06                      |         i32.const 6
 003ec6: 10 cd 80 80 80 00          |         call 77
 003ecc: 21 05                      |         local.set 5
 003ece: 0c 01                      |         br 1
 003ed0: 0b                         |       end
 003ed1: 41 8a 83 c0 80 00          |       i32.const 1048970
 003ed7: 41 07                      |       i32.const 7
 003ed9: 10 cd 80 80 80 00          |       call 77
 003edf: 21 05                      |       local.set 5
 003ee1: 0b                         |     end
 003ee2: 02 40                      |     block
 003ee4: 02 40                      |       block
 003ee6: 20 08                      |         local.get 8
 003ee8: 42 00                      |         i64.const 0
 003eea: 52                         |         i64.ne
 003eeb: 20 07                      |         local.get 7
 003eed: 42 00                      |         i64.const 0
 003eef: 55                         |         i64.gt_s
 003ef0: 20 07                      |         local.get 7
 003ef2: 50                         |         i64.eqz
 003ef3: 1b                         |         select
 003ef4: 0d 00                      |         br_if 0
 003ef6: 41 91 83 c0 80 00          |         i32.const 1048977
 003efc: 41 07                      |         i32.const 7
 003efe: 10 cd 80 80 80 00          |         call 77
 003f04: 21 07                      |         local.set 7
 003f06: 0c 01                      |         br 1
 003f08: 0b                         |       end
 003f09: 41 98 83 c0 80 00          |       i32.const 1048984
 003f0f: 41 08                      |       i32.const 8
 003f11: 10 cd 80 80 80 00          |       call 77
 003f17: 21 07                      |       local.set 7
 003f19: 0b                         |     end
 003f1a: 02 40                      |     block
 003f1c: 02 40                      |       block
 003f1e: 20 02                      |         local.get 2
 003f20: 0d 00                      |         br_if 0
 003f22: 41 a0 83 c0 80 00          |         i32.const 1048992
 003f28: 41 08                      |         i32.const 8
 003f2a: 10 cd 80 80 80 00          |         call 77
 003f30: 21 03                      |         local.set 3
 003f32: 0c 01                      |         br 1
 003f34: 0b                         |       end
 003f35: 41 a8 83 c0 80 00          |       i32.const 1049000
 003f3b: 41 07                      |       i32.const 7
 003f3d: 10 cd 80 80 80 00          |       call 77
 003f43: 21 03                      |       local.set 3
 003f45: 0b                         |     end
 003f46: 02 40                      |     block
 003f48: 02 40                      |       block
 003f4a: 20 09                      |         local.get 9
 003f4c: 42 00                      |         i64.const 0
 003f4e: 52                         |         i64.ne
 003f4f: 20 00                      |         local.get 0
 003f51: 42 00                      |         i64.const 0
 003f53: 55                         |         i64.gt_s
 003f54: 20 00                      |         local.get 0
 003f56: 50                         |         i64.eqz
 003f57: 1b                         |         select
 003f58: 0d 00                      |         br_if 0
 003f5a: 41 af 83 c0 80 00          |         i32.const 1049007
 003f60: 41 0b                      |         i32.const 11
 003f62: 10 cd 80 80 80 00          |         call 77
 003f68: 21 00                      |         local.set 0
 003f6a: 0c 01                      |         br 1
 003f6c: 0b                         |       end
 003f6d: 41 ba 83 c0 80 00          |       i32.const 1049018
 003f73: 41 0c                      |       i32.const 12
 003f75: 10 cd 80 80 80 00          |       call 77
 003f7b: 21 00                      |       local.set 0
 003f7d: 0b                         |     end
 003f7e: 20 01                      |     local.get 1
 003f80: 20 00                      |     local.get 0
 003f82: 37 03 28                   |     i64.store 3 40
 003f85: 20 01                      |     local.get 1
 003f87: 20 03                      |     local.get 3
 003f89: 37 03 20                   |     i64.store 3 32
 003f8c: 20 01                      |     local.get 1
 003f8e: 20 07                      |     local.get 7
 003f90: 37 03 18                   |     i64.store 3 24
 003f93: 20 01                      |     local.get 1
 003f95: 20 05                      |     local.get 5
 003f97: 37 03 10                   |     i64.store 3 16
 003f9a: 20 01                      |     local.get 1
 003f9c: 20 04                      |     local.get 4
 003f9e: 37 03 08                   |     i64.store 3 8
 003fa1: 41 00                      |     i32.const 0
 003fa3: 21 02                      |     local.set 2
 003fa5: 03 40                      |     loop
 003fa7: 02 40                      |       block
 003fa9: 20 02                      |         local.get 2
 003fab: 41 28                      |         i32.const 40
 003fad: 47                         |         i32.ne
 003fae: 0d 00                      |         br_if 0
 003fb0: 41 00                      |         i32.const 0
 003fb2: 21 02                      |         local.set 2
 003fb4: 02 40                      |         block
 003fb6: 03 40                      |           loop
 003fb8: 20 02                      |             local.get 2
 003fba: 41 28                      |             i32.const 40
 003fbc: 46                         |             i32.eq
 003fbd: 0d 01                      |             br_if 1
 003fbf: 20 01                      |             local.get 1
 003fc1: 41 30                      |             i32.const 48
 003fc3: 6a                         |             i32.add
 003fc4: 20 02                      |             local.get 2
 003fc6: 6a                         |             i32.add
 003fc7: 20 01                      |             local.get 1
 003fc9: 41 08                      |             i32.const 8
 003fcb: 6a                         |             i32.add
 003fcc: 20 02                      |             local.get 2
 003fce: 6a                         |             i32.add
 003fcf: 29 03 00                   |             i64.load 3 0
 003fd2: 37 03 00                   |             i64.store 3 0
 003fd5: 20 02                      |             local.get 2
 003fd7: 41 08                      |             i32.const 8
 003fd9: 6a                         |             i32.add
 003fda: 21 02                      |             local.set 2
 003fdc: 0c 00                      |             br 0
 003fde: 0b                         |           end
 003fdf: 0b                         |         end
 003fe0: 20 01                      |         local.get 1
 003fe2: 41 30                      |         i32.const 48
 003fe4: 6a                         |         i32.add
 003fe5: 41 05                      |         i32.const 5
 003fe7: 10 b0 80 80 80 00          |         call 48
 003fed: 21 00                      |         local.set 0
 003fef: 0c 03                      |         br 3
 003ff1: 0b                         |       end
 003ff2: 20 01                      |       local.get 1
 003ff4: 41 30                      |       i32.const 48
 003ff6: 6a                         |       i32.add
 003ff7: 20 02                      |       local.get 2
 003ff9: 6a                         |       i32.add
 003ffa: 42 02                      |       i64.const 2
 003ffc: 37 03 00                   |       i64.store 3 0
 003fff: 20 02                      |       local.get 2
 004001: 41 08                      |       i32.const 8
 004003: 6a                         |       i32.add
 004004: 21 02                      |       local.set 2
 004006: 0c 00                      |       br 0
 004008: 0b                         |     end
 004009: 0b                         |   end
 00400a: 00                         |   unreachable
 00400b: 0b                         | end
 00400c: 20 01                      | local.get 1
 00400e: 41 e0 00                   | i32.const 96
 004011: 6a                         | i32.add
 004012: 24 80 80 80 80 00          | global.set 0
 004018: 20 00                      | local.get 0
 00401a: 0b                         | end
00401d func[117] <get_debit_detailed_tuple>:
 00401e: 02 7f                      | local[1..2] type=i32
 004020: 04 7e                      | local[3..6] type=i64
 004022: 23 80 80 80 80 00          | global.get 0
 004028: 41 90 01                   | i32.const 144
 00402b: 6b                         | i32.sub
 00402c: 22 01                      | local.tee 1
 00402e: 24 80 80 80 80 00          | global.set 0
 004034: 02 40                      | block
 004036: 02 40                      |   block
 004038: 20 00                      |     local.get 0
 00403a: a7                         |     i32.wrap_i64
 00403b: 41 ff 01                   |     i32.const 255
 00403e: 71                         |     i32.and
 00403f: 22 02                      |     local.tee 2
 004041: 41 0e                      |     i32.const 14
 004043: 46                         |     i32.eq
 004044: 0d 00                      |     br_if 0
 004046: 20 02                      |     local.get 2
 004048: 41 ca 00                   |     i32.const 74
 00404b: 47                         |     i32.ne
 00404c: 0d 01                      |     br_if 1
 00404e: 0b                         |   end
 00404f: 20 01                      |   local.get 1
 004051: 41 d3 81 c0 80 00          |   i32.const 1048787
 004057: 41 09                      |   i32.const 9
 004059: 20 00                      |   local.get 0
 00405b: 10 ba 80 80 80 00          |   call 58
 004061: 20 01                      |   local.get 1
 004063: 41 10                      |   i32.const 16
 004065: 6a                         |   i32.add
 004066: 41 dc 81 c0 80 00          |   i32.const 1048796
 00406c: 41 0b                      |   i32.const 11
 00406e: 20 00                      |   local.get 0
 004070: 10 ba 80 80 80 00          |   call 58
 004076: 20 01                      |   local.get 1
 004078: 41 20                      |   i32.const 32
 00407a: 6a                         |   i32.add
 00407b: 41 e7 81 c0 80 00          |   i32.const 1048807
 004081: 41 09                      |   i32.const 9
 004083: 20 00                      |   local.get 0
 004085: 10 ba 80 80 80 00          |   call 58
 00408b: 20 01                      |   local.get 1
 00408d: 41 30                      |   i32.const 48
 00408f: 6a                         |   i32.add
 004090: 41 f0 81 c0 80 00          |   i32.const 1048816
 004096: 41 0a                      |   i32.const 10
 004098: 20 00                      |   local.get 0
 00409a: 10 ba 80 80 80 00          |   call 58
 0040a0: 41 fa 81 c0 80 00          |   i32.const 1048826
 0040a6: 41 09                      |   i32.const 9
 0040a8: 20 00                      |   local.get 0
 0040aa: 10 bc 80 80 80 00          |   call 60
 0040b0: 21 03                      |   local.set 3
 0040b2: 20 00                      |   local.get 0
 0040b4: 10 be 80 80 80 00          |   call 62
 0040ba: 21 02                      |   local.set 2
 0040bc: 20 01                      |   local.get 1
 0040be: 41 80 01                   |   i32.const 128
 0040c1: 6a                         |   i32.add
 0040c2: 20 01                      |   local.get 1
 0040c4: 29 03 00                   |   i64.load 3 0
 0040c7: 20 01                      |   local.get 1
 0040c9: 29 03 08                   |   i64.load 3 8
 0040cc: 10 b1 80 80 80 00          |   call 49
 0040d2: 20 01                      |   local.get 1
 0040d4: 28 02 80 01                |   i32.load 2 128
 0040d8: 0d 00                      |   br_if 0
 0040da: 20 01                      |   local.get 1
 0040dc: 29 03 88 01                |   i64.load 3 136
 0040e0: 21 00                      |   local.set 0
 0040e2: 20 01                      |   local.get 1
 0040e4: 41 80 01                   |   i32.const 128
 0040e7: 6a                         |   i32.add
 0040e8: 20 01                      |   local.get 1
 0040ea: 29 03 10                   |   i64.load 3 16
 0040ed: 20 01                      |   local.get 1
 0040ef: 29 03 18                   |   i64.load 3 24
 0040f2: 10 b1 80 80 80 00          |   call 49
 0040f8: 20 01                      |   local.get 1
 0040fa: 28 02 80 01                |   i32.load 2 128
 0040fe: 0d 00                      |   br_if 0
 004100: 20 01                      |   local.get 1
 004102: 29 03 88 01                |   i64.load 3 136
 004106: 21 04                      |   local.set 4
 004108: 20 01                      |   local.get 1
 00410a: 41 80 01                   |   i32.const 128
 00410d: 6a                         |   i32.add
 00410e: 20 01                      |   local.get 1
 004110: 29 03 20                   |   i64.load 3 32
 004113: 20 01                      |   local.get 1
 004115: 29 03 28                   |   i64.load 3 40
 004118: 10 b1 80 80 80 00          |   call 49
 00411e: 20 01                      |   local.get 1
 004120: 28 02 80 01                |   i32.load 2 128
 004124: 0d 00                      |   br_if 0
 004126: 20 01                      |   local.get 1
 004128: 29 03 88 01                |   i64.load 3 136
 00412c: 21 05                      |   local.set 5
 00412e: 20 01                      |   local.get 1
 004130: 41 80 01                   |   i32.const 128
 004133: 6a                         |   i32.add
 004134: 20 01                      |   local.get 1
 004136: 29 03 30                   |   i64.load 3 48
 004139: 20 01                      |   local.get 1
 00413b: 29 03 38                   |   i64.load 3 56
 00413e: 10 b1 80 80 80 00          |   call 49
 004144: 20 01                      |   local.get 1
 004146: 28 02 80 01                |   i32.load 2 128
 00414a: 0d 00                      |   br_if 0
 00414c: 20 01                      |   local.get 1
 00414e: 29 03 88 01                |   i64.load 3 136
 004152: 21 06                      |   local.set 6
 004154: 20 01                      |   local.get 1
 004156: 41 80 01                   |   i32.const 128
 004159: 6a                         |   i32.add
 00415a: 20 03                      |   local.get 3
 00415c: 10 9a 80 80 80 00          |   call 26
 004162: 20 01                      |   local.get 1
 004164: 28 02 80 01                |   i32.load 2 128
 004168: 41 01                      |   i32.const 1
 00416a: 46                         |   i32.eq
 00416b: 0d 00                      |   br_if 0
 00416d: 20 01                      |   local.get 1
 00416f: 20 01                      |   local.get 1
 004171: 29 03 88 01                |   i64.load 3 136
 004175: 37 03 70                   |   i64.store 3 112
 004178: 20 01                      |   local.get 1
 00417a: 20 06                      |   local.get 6
 00417c: 37 03 68                   |   i64.store 3 104
 00417f: 20 01                      |   local.get 1
 004181: 20 05                      |   local.get 5
 004183: 37 03 60                   |   i64.store 3 96
 004186: 20 01                      |   local.get 1
 004188: 20 04                      |   local.get 4
 00418a: 37 03 58                   |   i64.store 3 88
 00418d: 20 01                      |   local.get 1
 00418f: 20 00                      |   local.get 0
 004191: 37 03 50                   |   i64.store 3 80
 004194: 20 01                      |   local.get 1
 004196: 20 02                      |   local.get 2
 004198: ad                         |   i64.extend_i32_u
 004199: 37 03 78                   |   i64.store 3 120
 00419c: 20 01                      |   local.get 1
 00419e: 41 d0 00                   |   i32.const 80
 0041a1: 6a                         |   i32.add
 0041a2: 41 06                      |   i32.const 6
 0041a4: 10 b0 80 80 80 00          |   call 48
 0041aa: 21 00                      |   local.set 0
 0041ac: 20 01                      |   local.get 1
 0041ae: 41 90 01                   |   i32.const 144
 0041b1: 6a                         |   i32.add
 0041b2: 24 80 80 80 80 00          |   global.set 0
 0041b8: 20 00                      |   local.get 0
 0041ba: 0f                         |   return
 0041bb: 0b                         | end
 0041bc: 00                         | unreachable
 0041bd: 0b                         | end
0041c0 func[118] <add_financial_report>:
 0041c1: 01 7f                      | local[2] type=i32
 0041c3: 01 7e                      | local[3] type=i64
 0041c5: 01 7f                      | local[4] type=i32
 0041c7: 23 80 80 80 80 00          | global.get 0
 0041cd: 41 10                      | i32.const 16
 0041cf: 6b                         | i32.sub
 0041d0: 22 02                      | local.tee 2
 0041d2: 24 80 80 80 80 00          | global.set 0
 0041d8: 02 40                      | block
 0041da: 02 40                      |   block
 0041dc: 20 00                      |     local.get 0
 0041de: 42 ff 01                   |     i64.const 255
 0041e1: 83                         |     i64.and
 0041e2: 42 cd 00                   |     i64.const 77
 0041e5: 52                         |     i64.ne
 0041e6: 0d 00                      |     br_if 0
 0041e8: 20 01                      |     local.get 1
 0041ea: 42 ff 01                   |     i64.const 255
 0041ed: 83                         |     i64.and
 0041ee: 42 c9 00                   |     i64.const 73
 0041f1: 52                         |     i64.ne
 0041f2: 0d 00                      |     br_if 0
 0041f4: 42 8e da b9 dd b9 d6 03    |     i64.const 16164573834510
 0041fc: 21 03                      |     local.set 3
 0041fe: 02 40                      |     block
 004200: 20 00                      |       local.get 0
 004202: 10 ce 80 80 80 00          |       call 78
 004208: 45                         |       i32.eqz
 004209: 0d 00                      |       br_if 0
 00420b: 02 40                      |       block
 00420d: 20 01                      |         local.get 1
 00420f: 41 0a                      |         i32.const 10
 004211: 41 e8 07                   |         i32.const 1000
 004214: 10 d1 80 80 80 00          |         call 81
 00421a: 41 ff 01                   |         i32.const 255
 00421d: 71                         |         i32.and
 00421e: 22 04                      |         local.tee 4
 004220: 41 1f                      |         i32.const 31
 004222: 46                         |         i32.eq
 004223: 0d 00                      |         br_if 0
 004225: 20 04                      |         local.get 4
 004227: 41 03                      |         i32.const 3
 004229: 74                         |         i32.shl
 00422a: 41 98 84 c0 80 00          |         i32.const 1049112
 004230: 6a                         |         i32.add
 004231: 29 03 00                   |         i64.load 3 0
 004234: 21 03                      |         local.set 3
 004236: 0c 01                      |         br 1
 004238: 0b                         |       end
 004239: 20 00                      |       local.get 0
 00423b: 10 8a 80 80 80 00          |       call 10 <a.0>
 004241: 1a                         |       drop
 004242: 20 02                      |       local.get 2
 004244: 10 c8 80 80 80 00          |       call 72
 00424a: 42 8e ea ea bb b0 f6 ae 01 |       i64.const 769327552443662
 004253: 20 02                      |       local.get 2
 004255: 29 03 00                   |       i64.load 3 0
 004258: 22 03                      |       local.tee 3
 00425a: 20 02                      |       local.get 2
 00425c: 29 03 08                   |       i64.load 3 8
 00425f: 22 00                      |       local.tee 0
 004261: 20 01                      |       local.get 1
 004263: 10 a3 80 80 80 00          |       call 35
 004269: 20 00                      |       local.get 0
 00426b: 42 7f                      |       i64.const 18446744073709551615
 00426d: 85                         |       i64.xor
 00426e: 20 00                      |       local.get 0
 004270: 20 00                      |       local.get 0
 004272: 20 03                      |       local.get 3
 004274: 42 01                      |       i64.const 1
 004276: 7c                         |       i64.add
 004277: 22 01                      |       local.tee 1
 004279: 50                         |       i64.eqz
 00427a: ad                         |       i64.extend_i32_u
 00427b: 7c                         |       i64.add
 00427c: 22 03                      |       local.tee 3
 00427e: 85                         |       i64.xor
 00427f: 83                         |       i64.and
 004280: 42 7f                      |       i64.const 18446744073709551615
 004282: 57                         |       i64.le_s
 004283: 0d 02                      |       br_if 2
 004285: 42 8e f2 b3 9d 8d 8d cc dd |       i64.const 3151165591061854478
 00428e: 2b                         | 
 00428f: 20 01                      |       local.get 1
 004291: 20 03                      |       local.get 3
 004293: 10 a4 80 80 80 00          |       call 36
 004299: 42 8e d2 ea b4 ea 04       |       i64.const 166003910926
 0042a0: 21 03                      |       local.set 3
 0042a2: 0b                         |     end
 0042a3: 20 02                      |     local.get 2
 0042a5: 41 10                      |     i32.const 16
 0042a7: 6a                         |     i32.add
 0042a8: 24 80 80 80 80 00          |     global.set 0
 0042ae: 20 03                      |     local.get 3
 0042b0: 0f                         |     return
 0042b1: 0b                         |   end
 0042b2: 00                         |   unreachable
 0042b3: 0b                         | end
 0042b4: 10 c1 80 80 80 00          | call 65
 0042ba: 00                         | unreachable
 0042bb: 0b                         | end
0042be func[119] <add_monitor_report>:
 0042bf: 01 7f                      | local[2] type=i32
 0042c1: 01 7e                      | local[3] type=i64
 0042c3: 01 7f                      | local[4] type=i32
 0042c5: 23 80 80 80 80 00          | global.get 0
 0042cb: 41 10                      | i32.const 16
 0042cd: 6b                         | i32.sub
 0042ce: 22 02                      | local.tee 2
 0042d0: 24 80 80 80 80 00          | global.set 0
 0042d6: 02 40                      | block
 0042d8: 02 40                      |   block
 0042da: 20 00                      |     local.get 0
 0042dc: 42 ff 01                   |     i64.const 255
 0042df: 83                         |     i64.and
 0042e0: 42 cd 00                   |     i64.const 77
 0042e3: 52                         |     i64.ne
 0042e4: 0d 00                      |     br_if 0
 0042e6: 20 01                      |     local.get 1
 0042e8: 42 ff 01                   |     i64.const 255
 0042eb: 83                         |     i64.and
 0042ec: 42 c9 00                   |     i64.const 73
 0042ef: 52                         |     i64.ne
 0042f0: 0d 00                      |     br_if 0
 0042f2: 42 8e da b9 dd b9 d6 03    |     i64.const 16164573834510
 0042fa: 21 03                      |     local.set 3
 0042fc: 02 40                      |     block
 0042fe: 20 00                      |       local.get 0
 004300: 10 ce 80 80 80 00          |       call 78
 004306: 45                         |       i32.eqz
 004307: 0d 00                      |       br_if 0
 004309: 02 40                      |       block
 00430b: 20 01                      |         local.get 1
 00430d: 41 0a                      |         i32.const 10
 00430f: 41 e8 07                   |         i32.const 1000
 004312: 10 d1 80 80 80 00          |         call 81
 004318: 41 ff 01                   |         i32.const 255
 00431b: 71                         |         i32.and
 00431c: 22 04                      |         local.tee 4
 00431e: 41 1f                      |         i32.const 31
 004320: 46                         |         i32.eq
 004321: 0d 00                      |         br_if 0
 004323: 20 04                      |         local.get 4
 004325: 41 03                      |         i32.const 3
 004327: 74                         |         i32.shl
 004328: 41 98 84 c0 80 00          |         i32.const 1049112
 00432e: 6a                         |         i32.add
 00432f: 29 03 00                   |         i64.load 3 0
 004332: 21 03                      |         local.set 3
 004334: 0c 01                      |         br 1
 004336: 0b                         |       end
 004337: 20 00                      |       local.get 0
 004339: 10 8a 80 80 80 00          |       call 10 <a.0>
 00433f: 1a                         |       drop
 004340: 20 02                      |       local.get 2
 004342: 10 c9 80 80 80 00          |       call 73
 004348: 42 8e ea ea bb b0 a6 cb 01 |       i64.const 894122122196238
 004351: 20 02                      |       local.get 2
 004353: 29 03 00                   |       i64.load 3 0
 004356: 22 03                      |       local.tee 3
 004358: 20 02                      |       local.get 2
 00435a: 29 03 08                   |       i64.load 3 8
 00435d: 22 00                      |       local.tee 0
 00435f: 20 01                      |       local.get 1
 004361: 10 a3 80 80 80 00          |       call 35
 004367: 20 00                      |       local.get 0
 004369: 42 7f                      |       i64.const 18446744073709551615
 00436b: 85                         |       i64.xor
 00436c: 20 00                      |       local.get 0
 00436e: 20 00                      |       local.get 0
 004370: 20 03                      |       local.get 3
 004372: 42 01                      |       i64.const 1
 004374: 7c                         |       i64.add
 004375: 22 01                      |       local.tee 1
 004377: 50                         |       i64.eqz
 004378: ad                         |       i64.extend_i32_u
 004379: 7c                         |       i64.add
 00437a: 22 03                      |       local.tee 3
 00437c: 85                         |       i64.xor
 00437d: 83                         |       i64.and
 00437e: 42 7f                      |       i64.const 18446744073709551615
 004380: 57                         |       i64.le_s
 004381: 0d 02                      |       br_if 2
 004383: 42 8e f2 b3 9d 8d 8d cc e9 |       i64.const 3662324148768405774
 00438c: 32                         | 
 00438d: 20 01                      |       local.get 1
 00438f: 20 03                      |       local.get 3
 004391: 10 a4 80 80 80 00          |       call 36
 004397: 42 8e d2 ea b4 ea 04       |       i64.const 166003910926
 00439e: 21 03                      |       local.set 3
 0043a0: 0b                         |     end
 0043a1: 20 02                      |     local.get 2
 0043a3: 41 10                      |     i32.const 16
 0043a5: 6a                         |     i32.add
 0043a6: 24 80 80 80 80 00          |     global.set 0
 0043ac: 20 03                      |     local.get 3
 0043ae: 0f                         |     return
 0043af: 0b                         |   end
 0043b0: 00                         |   unreachable
 0043b1: 0b                         | end
 0043b2: 10 c1 80 80 80 00          | call 65
 0043b8: 00                         | unreachable
 0043b9: 0b                         | end
0043bc func[120] <get_last_financial_report>:
 0043bd: 01 7f                      | local[0] type=i32
 0043bf: 03 7e                      | local[1..3] type=i64
 0043c1: 23 80 80 80 80 00          | global.get 0
 0043c7: 41 10                      | i32.const 16
 0043c9: 6b                         | i32.sub
 0043ca: 22 00                      | local.tee 0
 0043cc: 24 80 80 80 80 00          | global.set 0
 0043d2: 20 00                      | local.get 0
 0043d4: 10 c8 80 80 80 00          | call 72
 0043da: 02 40                      | block
 0043dc: 02 40                      |   block
 0043de: 02 40                      |     block
 0043e0: 20 00                      |       local.get 0
 0043e2: 29 03 00                   |       i64.load 3 0
 0043e5: 22 01                      |       local.tee 1
 0043e7: 20 00                      |       local.get 0
 0043e9: 29 03 08                   |       i64.load 3 8
 0043ec: 22 02                      |       local.tee 2
 0043ee: 84                         |       i64.or
 0043ef: 50                         |       i64.eqz
 0043f0: 45                         |       i32.eqz
 0043f1: 0d 00                      |       br_if 0
 0043f3: 42 00                      |       i64.const 0
 0043f5: 21 02                      |       local.set 2
 0043f7: 0c 01                      |       br 1
 0043f9: 0b                         |     end
 0043fa: 20 02                      |     local.get 2
 0043fc: 20 02                      |     local.get 2
 0043fe: 20 02                      |     local.get 2
 004400: 20 01                      |     local.get 1
 004402: 50                         |     i64.eqz
 004403: ad                         |     i64.extend_i32_u
 004404: 7d                         |     i64.sub
 004405: 22 03                      |     local.tee 3
 004407: 85                         |     i64.xor
 004408: 83                         |     i64.and
 004409: 42 00                      |     i64.const 0
 00440b: 53                         |     i64.lt_s
 00440c: 0d 01                      |     br_if 1
 00440e: 20 00                      |     local.get 0
 004410: 42 8e ea ea bb b0 f6 ae 01 |     i64.const 769327552443662
 004419: 20 01                      |     local.get 1
 00441b: 42 7f                      |     i64.const 18446744073709551615
 00441d: 7c                         |     i64.add
 00441e: 20 03                      |     local.get 3
 004420: 10 a0 80 80 80 00          |     call 32
 004426: 20 00                      |     local.get 0
 004428: 29 03 08                   |     i64.load 3 8
 00442b: 21 01                      |     local.set 1
 00442d: 20 00                      |     local.get 0
 00442f: 29 03 00                   |     i64.load 3 0
 004432: 21 02                      |     local.set 2
 004434: 0b                         |   end
 004435: 20 02                      |   local.get 2
 004437: 20 01                      |   local.get 1
 004439: 10 ad 80 80 80 00          |   call 45
 00443f: 21 02                      |   local.set 2
 004441: 20 00                      |   local.get 0
 004443: 41 10                      |   i32.const 16
 004445: 6a                         |   i32.add
 004446: 24 80 80 80 80 00          |   global.set 0
 00444c: 20 02                      |   local.get 2
 00444e: 0f                         |   return
 00444f: 0b                         | end
 004450: 10 c1 80 80 80 00          | call 65
 004456: 00                         | unreachable
 004457: 0b                         | end
00445a func[121] <get_last_monitor_report>:
 00445b: 01 7f                      | local[0] type=i32
 00445d: 03 7e                      | local[1..3] type=i64
 00445f: 23 80 80 80 80 00          | global.get 0
 004465: 41 10                      | i32.const 16
 004467: 6b                         | i32.sub
 004468: 22 00                      | local.tee 0
 00446a: 24 80 80 80 80 00          | global.set 0
 004470: 20 00                      | local.get 0
 004472: 10 c9 80 80 80 00          | call 73
 004478: 02 40                      | block
 00447a: 02 40                      |   block
 00447c: 02 40                      |     block
 00447e: 20 00                      |       local.get 0
 004480: 29 03 00                   |       i64.load 3 0
 004483: 22 01                      |       local.tee 1
 004485: 20 00                      |       local.get 0
 004487: 29 03 08                   |       i64.load 3 8
 00448a: 22 02                      |       local.tee 2
 00448c: 84                         |       i64.or
 00448d: 50                         |       i64.eqz
 00448e: 45                         |       i32.eqz
 00448f: 0d 00                      |       br_if 0
 004491: 42 00                      |       i64.const 0
 004493: 21 02                      |       local.set 2
 004495: 0c 01                      |       br 1
 004497: 0b                         |     end
 004498: 20 02                      |     local.get 2
 00449a: 20 02                      |     local.get 2
 00449c: 20 02                      |     local.get 2
 00449e: 20 01                      |     local.get 1
 0044a0: 50                         |     i64.eqz
 0044a1: ad                         |     i64.extend_i32_u
 0044a2: 7d                         |     i64.sub
 0044a3: 22 03                      |     local.tee 3
 0044a5: 85                         |     i64.xor
 0044a6: 83                         |     i64.and
 0044a7: 42 00                      |     i64.const 0
 0044a9: 53                         |     i64.lt_s
 0044aa: 0d 01                      |     br_if 1
 0044ac: 20 00                      |     local.get 0
 0044ae: 42 8e ea ea bb b0 a6 cb 01 |     i64.const 894122122196238
 0044b7: 20 01                      |     local.get 1
 0044b9: 42 7f                      |     i64.const 18446744073709551615
 0044bb: 7c                         |     i64.add
 0044bc: 20 03                      |     local.get 3
 0044be: 10 a0 80 80 80 00          |     call 32
 0044c4: 20 00                      |     local.get 0
 0044c6: 29 03 08                   |     i64.load 3 8
 0044c9: 21 01                      |     local.set 1
 0044cb: 20 00                      |     local.get 0
 0044cd: 29 03 00                   |     i64.load 3 0
 0044d0: 21 02                      |     local.set 2
 0044d2: 0b                         |   end
 0044d3: 20 02                      |   local.get 2
 0044d5: 20 01                      |   local.get 1
 0044d7: 10 ad 80 80 80 00          |   call 45
 0044dd: 21 02                      |   local.set 2
 0044df: 20 00                      |   local.get 0
 0044e1: 41 10                      |   i32.const 16
 0044e3: 6a                         |   i32.add
 0044e4: 24 80 80 80 80 00          |   global.set 0
 0044ea: 20 02                      |   local.get 2
 0044ec: 0f                         |   return
 0044ed: 0b                         | end
 0044ee: 10 c1 80 80 80 00          | call 65
 0044f4: 00                         | unreachable
 0044f5: 0b                         | end
0044f8 func[122] <get_financial_report>:
 0044f9: 01 7f                      | local[1] type=i32
 0044fb: 04 7e                      | local[2..5] type=i64
 0044fd: 23 80 80 80 80 00          | global.get 0
 004503: 41 20                      | i32.const 32
 004505: 6b                         | i32.sub
 004506: 22 01                      | local.tee 1
 004508: 24 80 80 80 80 00          | global.set 0
 00450e: 20 01                      | local.get 1
 004510: 20 00                      | local.get 0
 004512: 10 9f 80 80 80 00          | call 31
 004518: 02 40                      | block
 00451a: 20 01                      |   local.get 1
 00451c: 28 02 00                   |   i32.load 2 0
 00451f: 41 01                      |   i32.const 1
 004521: 46                         |   i32.eq
 004522: 0d 00                      |   br_if 0
 004524: 42 00                      |   i64.const 0
 004526: 21 02                      |   local.set 2
 004528: 20 01                      |   local.get 1
 00452a: 29 03 18                   |   i64.load 3 24
 00452d: 21 00                      |   local.set 0
 00452f: 20 01                      |   local.get 1
 004531: 29 03 10                   |   i64.load 3 16
 004534: 21 03                      |   local.set 3
 004536: 20 01                      |   local.get 1
 004538: 10 c8 80 80 80 00          |   call 72
 00453e: 02 40                      |   block
 004540: 02 40                      |     block
 004542: 20 00                      |       local.get 0
 004544: 42 00                      |       i64.const 0
 004546: 59                         |       i64.ge_s
 004547: 0d 00                      |       br_if 0
 004549: 0c 01                      |       br 1
 00454b: 0b                         |     end
 00454c: 20 03                      |     local.get 3
 00454e: 20 01                      |     local.get 1
 004550: 29 03 00                   |     i64.load 3 0
 004553: 5a                         |     i64.ge_u
 004554: 20 00                      |     local.get 0
 004556: 20 01                      |     local.get 1
 004558: 29 03 08                   |     i64.load 3 8
 00455b: 22 04                      |     local.tee 4
 00455d: 59                         |     i64.ge_s
 00455e: 20 00                      |     local.get 0
 004560: 20 04                      |     local.get 4
 004562: 51                         |     i64.eq
 004563: 1b                         |     select
 004564: 0d 00                      |     br_if 0
 004566: 20 01                      |     local.get 1
 004568: 42 8e ea ea bb b0 f6 ae 01 |     i64.const 769327552443662
 004571: 20 03                      |     local.get 3
 004573: 20 00                      |     local.get 0
 004575: 10 a0 80 80 80 00          |     call 32
 00457b: 20 01                      |     local.get 1
 00457d: 29 03 08                   |     i64.load 3 8
 004580: 21 05                      |     local.set 5
 004582: 20 01                      |     local.get 1
 004584: 29 03 00                   |     i64.load 3 0
 004587: 21 02                      |     local.set 2
 004589: 0b                         |   end
 00458a: 20 02                      |   local.get 2
 00458c: 20 05                      |   local.get 5
 00458e: 10 ad 80 80 80 00          |   call 45
 004594: 21 00                      |   local.set 0
 004596: 20 01                      |   local.get 1
 004598: 41 20                      |   i32.const 32
 00459a: 6a                         |   i32.add
 00459b: 24 80 80 80 80 00          |   global.set 0
 0045a1: 20 00                      |   local.get 0
 0045a3: 0f                         |   return
 0045a4: 0b                         | end
 0045a5: 00                         | unreachable
 0045a6: 0b                         | end
0045a9 func[123] <get_monitor_report>:
 0045aa: 01 7f                      | local[1] type=i32
 0045ac: 04 7e                      | local[2..5] type=i64
 0045ae: 23 80 80 80 80 00          | global.get 0
 0045b4: 41 20                      | i32.const 32
 0045b6: 6b                         | i32.sub
 0045b7: 22 01                      | local.tee 1
 0045b9: 24 80 80 80 80 00          | global.set 0
 0045bf: 20 01                      | local.get 1
 0045c1: 20 00                      | local.get 0
 0045c3: 10 9f 80 80 80 00          | call 31
 0045c9: 02 40                      | block
 0045cb: 20 01                      |   local.get 1
 0045cd: 28 02 00                   |   i32.load 2 0
 0045d0: 41 01                      |   i32.const 1
 0045d2: 46                         |   i32.eq
 0045d3: 0d 00                      |   br_if 0
 0045d5: 42 00                      |   i64.const 0
 0045d7: 21 02                      |   local.set 2
 0045d9: 20 01                      |   local.get 1
 0045db: 29 03 18                   |   i64.load 3 24
 0045de: 21 00                      |   local.set 0
 0045e0: 20 01                      |   local.get 1
 0045e2: 29 03 10                   |   i64.load 3 16
 0045e5: 21 03                      |   local.set 3
 0045e7: 20 01                      |   local.get 1
 0045e9: 10 c9 80 80 80 00          |   call 73
 0045ef: 02 40                      |   block
 0045f1: 02 40                      |     block
 0045f3: 20 00                      |       local.get 0
 0045f5: 42 00                      |       i64.const 0
 0045f7: 59                         |       i64.ge_s
 0045f8: 0d 00                      |       br_if 0
 0045fa: 0c 01                      |       br 1
 0045fc: 0b                         |     end
 0045fd: 20 03                      |     local.get 3
 0045ff: 20 01                      |     local.get 1
 004601: 29 03 00                   |     i64.load 3 0
 004604: 5a                         |     i64.ge_u
 004605: 20 00                      |     local.get 0
 004607: 20 01                      |     local.get 1
 004609: 29 03 08                   |     i64.load 3 8
 00460c: 22 04                      |     local.tee 4
 00460e: 59                         |     i64.ge_s
 00460f: 20 00                      |     local.get 0
 004611: 20 04                      |     local.get 4
 004613: 51                         |     i64.eq
 004614: 1b                         |     select
 004615: 0d 00                      |     br_if 0
 004617: 20 01                      |     local.get 1
 004619: 42 8e ea ea bb b0 a6 cb 01 |     i64.const 894122122196238
 004622: 20 03                      |     local.get 3
 004624: 20 00                      |     local.get 0
 004626: 10 a0 80 80 80 00          |     call 32
 00462c: 20 01                      |     local.get 1
 00462e: 29 03 08                   |     i64.load 3 8
 004631: 21 05                      |     local.set 5
 004633: 20 01                      |     local.get 1
 004635: 29 03 00                   |     i64.load 3 0
 004638: 21 02                      |     local.set 2
 00463a: 0b                         |   end
 00463b: 20 02                      |   local.get 2
 00463d: 20 05                      |   local.get 5
 00463f: 10 ad 80 80 80 00          |   call 45
 004645: 21 00                      |   local.set 0
 004647: 20 01                      |   local.get 1
 004649: 41 20                      |   i32.const 32
 00464b: 6a                         |   i32.add
 00464c: 24 80 80 80 80 00          |   global.set 0
 004652: 20 00                      |   local.get 0
 004654: 0f                         |   return
 004655: 0b                         | end
 004656: 00                         | unreachable
 004657: 0b                         | end
004659 func[124] <get_financial_reports_count>:
 00465a: 01 7f                      | local[0] type=i32
 00465c: 01 7e                      | local[1] type=i64
 00465e: 23 80 80 80 80 00          | global.get 0
 004664: 41 10                      | i32.const 16
 004666: 6b                         | i32.sub
 004667: 22 00                      | local.tee 0
 004669: 24 80 80 80 80 00          | global.set 0
 00466f: 20 00                      | local.get 0
 004671: 10 c8 80 80 80 00          | call 72
 004677: 20 00                      | local.get 0
 004679: 29 03 00                   | i64.load 3 0
 00467c: 20 00                      | local.get 0
 00467e: 29 03 08                   | i64.load 3 8
 004681: 10 a7 80 80 80 00          | call 39
 004687: 21 01                      | local.set 1
 004689: 20 00                      | local.get 0
 00468b: 41 10                      | i32.const 16
 00468d: 6a                         | i32.add
 00468e: 24 80 80 80 80 00          | global.set 0
 004694: 20 01                      | local.get 1
 004696: 0b                         | end
004698 func[125] <get_monitor_reports_count>:
 004699: 01 7f                      | local[0] type=i32
 00469b: 01 7e                      | local[1] type=i64
 00469d: 23 80 80 80 80 00          | global.get 0
 0046a3: 41 10                      | i32.const 16
 0046a5: 6b                         | i32.sub
 0046a6: 22 00                      | local.tee 0
 0046a8: 24 80 80 80 80 00          | global.set 0
 0046ae: 20 00                      | local.get 0
 0046b0: 10 c9 80 80 80 00          | call 73
 0046b6: 20 00                      | local.get 0
 0046b8: 29 03 00                   | i64.load 3 0
 0046bb: 20 00                      | local.get 0
 0046bd: 29 03 08                   | i64.load 3 8
 0046c0: 10 a7 80 80 80 00          | call 39
 0046c6: 21 01                      | local.set 1
 0046c8: 20 00                      | local.get 0
 0046ca: 41 10                      | i32.const 16
 0046cc: 6a                         | i32.add
 0046cd: 24 80 80 80 80 00          | global.set 0
 0046d3: 20 01                      | local.get 1
 0046d5: 0b                         | end
0046d8 func[126] <set_document_links>:
 0046d9: 01 7f                      | local[4] type=i32
 0046db: 02 40                      | block
 0046dd: 20 00                      |   local.get 0
 0046df: 42 ff 01                   |   i64.const 255
 0046e2: 83                         |   i64.and
 0046e3: 42 cd 00                   |   i64.const 77
 0046e6: 52                         |   i64.ne
 0046e7: 0d 00                      |   br_if 0
 0046e9: 20 01                      |   local.get 1
 0046eb: 42 ff 01                   |   i64.const 255
 0046ee: 83                         |   i64.and
 0046ef: 42 c9 00                   |   i64.const 73
 0046f2: 52                         |   i64.ne
 0046f3: 0d 00                      |   br_if 0
 0046f5: 20 02                      |   local.get 2
 0046f7: 42 ff 01                   |   i64.const 255
 0046fa: 83                         |   i64.and
 0046fb: 42 c9 00                   |   i64.const 73
 0046fe: 52                         |   i64.ne
 0046ff: 0d 00                      |   br_if 0
 004701: 20 03                      |   local.get 3
 004703: 42 ff 01                   |   i64.const 255
 004706: 83                         |   i64.and
 004707: 42 c9 00                   |   i64.const 73
 00470a: 52                         |   i64.ne
 00470b: 0d 00                      |   br_if 0
 00470d: 02 40                      |   block
 00470f: 20 00                      |     local.get 0
 004711: 10 ce 80 80 80 00          |     call 78
 004717: 0d 00                      |     br_if 0
 004719: 42 8e da b9 dd b9 d6 03    |     i64.const 16164573834510
 004721: 0f                         |     return
 004722: 0b                         |   end
 004723: 02 40                      |   block
 004725: 20 01                      |     local.get 1
 004727: 10 d2 80 80 80 00          |     call 82
 00472d: 41 ff 01                   |     i32.const 255
 004730: 71                         |     i32.and
 004731: 22 04                      |     local.tee 4
 004733: 41 1f                      |     i32.const 31
 004735: 46                         |     i32.eq
 004736: 0d 00                      |     br_if 0
 004738: 20 04                      |     local.get 4
 00473a: 41 03                      |     i32.const 3
 00473c: 74                         |     i32.shl
 00473d: 41 98 84 c0 80 00          |     i32.const 1049112
 004743: 6a                         |     i32.add
 004744: 29 03 00                   |     i64.load 3 0
 004747: 0f                         |     return
 004748: 0b                         |   end
 004749: 02 40                      |   block
 00474b: 20 02                      |     local.get 2
 00474d: 10 d2 80 80 80 00          |     call 82
 004753: 22 04                      |     local.tee 4
 004755: 41 ff 01                   |     i32.const 255
 004758: 71                         |     i32.and
 004759: 41 1f                      |     i32.const 31
 00475b: 46                         |     i32.eq
 00475c: 0d 00                      |     br_if 0
 00475e: 20 04                      |     local.get 4
 004760: 41 ff 01                   |     i32.const 255
 004763: 71                         |     i32.and
 004764: 41 03                      |     i32.const 3
 004766: 74                         |     i32.shl
 004767: 41 98 84 c0 80 00          |     i32.const 1049112
 00476d: 6a                         |     i32.add
 00476e: 29 03 00                   |     i64.load 3 0
 004771: 0f                         |     return
 004772: 0b                         |   end
 004773: 02 40                      |   block
 004775: 20 03                      |     local.get 3
 004777: 10 d2 80 80 80 00          |     call 82
 00477d: 41 ff 01                   |     i32.const 255
 004780: 71                         |     i32.and
 004781: 22 04                      |     local.tee 4
 004783: 41 1f                      |     i32.const 31
 004785: 46                         |     i32.eq
 004786: 0d 00                      |     br_if 0
 004788: 20 04                      |     local.get 4
 00478a: 41 03                      |     i32.const 3
 00478c: 74                         |     i32.shl
 00478d: 41 98 84 c0 80 00          |     i32.const 1049112
 004793: 6a                         |     i32.add
 004794: 29 03 00                   |     i64.load 3 0
 004797: 0f                         |     return
 004798: 0b                         |   end
 004799: 20 00                      |   local.get 0
 00479b: 10 8a 80 80 80 00          |   call 10 <a.0>
 0047a1: 1a                         |   drop
 0047a2: 02 40                      |   block
 0047a4: 20 01                      |     local.get 1
 0047a6: 10 87 80 80 80 00          |     call 7 <b.k>
 0047ac: 42 80 80 80 80 10          |     i64.const 4294967296
 0047b2: 5a                         |     i64.ge_u
 0047b3: 0d 00                      |     br_if 0
 0047b5: 42 8e ee 81 bf de 96 ab 01 |     i64.const 752847232726798
 0047be: 0f                         |     return
 0047bf: 0b                         |   end
 0047c0: 02 40                      |   block
 0047c2: 20 02                      |     local.get 2
 0047c4: 10 87 80 80 80 00          |     call 7 <b.k>
 0047ca: 42 80 80 80 80 10          |     i64.const 4294967296
 0047d0: 5a                         |     i64.ge_u
 0047d1: 0d 00                      |     br_if 0
 0047d3: 42 8e d8 81 bf de 96 ab 01 |     i64.const 752847232723982
 0047dc: 0f                         |     return
 0047dd: 0b                         |   end
 0047de: 02 40                      |   block
 0047e0: 20 03                      |     local.get 3
 0047e2: 10 87 80 80 80 00          |     call 7 <b.k>
 0047e8: 42 80 80 80 80 10          |     i64.const 4294967296
 0047ee: 5a                         |     i64.ge_u
 0047ef: 0d 00                      |     br_if 0
 0047f1: 42 8e d0 81 bf de 96 ab 01 |     i64.const 752847232722958
 0047fa: 0f                         |     return
 0047fb: 0b                         |   end
 0047fc: 42 8e e0 b3 b7 9c 80 e3 dd |   i64.const 4015957431991201806
 004805: 37                         | 
 004806: 20 01                      |   local.get 1
 004808: 10 a6 80 80 80 00          |   call 38
 00480e: 42 8e e0 b3 b7 9c 88 c7 e9 |   i64.const 2941726050438934542
 004817: 28                         | 
 004818: 20 02                      |   local.get 2
 00481a: 10 a6 80 80 80 00          |   call 38
 004820: 42 8e e0 b3 b7 9c c8 cf e9 |   i64.const 2941763433834278926
 004829: 28                         | 
 00482a: 20 03                      |   local.get 3
 00482c: 10 a6 80 80 80 00          |   call 38
 004832: 42 8e d2 ea dc 99 ad eb 01 |   i64.const 1035094023907598
 00483b: 0f                         |   return
 00483c: 0b                         | end
 00483d: 00                         | unreachable
 00483e: 0b                         | end
004840 func[127] <get_risk_analysis_link>:
 004841: 01 7f                      | local[0] type=i32
 004843: 01 7e                      | local[1] type=i64
 004845: 23 80 80 80 80 00          | global.get 0
 00484b: 41 10                      | i32.const 16
 00484d: 6b                         | i32.sub
 00484e: 22 00                      | local.tee 0
 004850: 24 80 80 80 80 00          | global.set 0
 004856: 20 00                      | local.get 0
 004858: 42 8e e0 b3 b7 9c 80 e3 dd | i64.const 4015957431991201806
 004861: 37                         | 
 004862: 10 a2 80 80 80 00          | call 34
 004868: 20 00                      | local.get 0
 00486a: 29 03 00                   | i64.load 3 0
 00486d: 20 00                      | local.get 0
 00486f: 29 03 08                   | i64.load 3 8
 004872: 10 ad 80 80 80 00          | call 45
 004878: 21 01                      | local.set 1
 00487a: 20 00                      | local.get 0
 00487c: 41 10                      | i32.const 16
 00487e: 6a                         | i32.add
 00487f: 24 80 80 80 80 00          | global.set 0
 004885: 20 01                      | local.get 1
 004887: 0b                         | end
004889 func[128] <get_collateral_link>:
 00488a: 01 7f                      | local[0] type=i32
 00488c: 01 7e                      | local[1] type=i64
 00488e: 23 80 80 80 80 00          | global.get 0
 004894: 41 10                      | i32.const 16
 004896: 6b                         | i32.sub
 004897: 22 00                      | local.tee 0
 004899: 24 80 80 80 80 00          | global.set 0
 00489f: 20 00                      | local.get 0
 0048a1: 42 8e e0 b3 b7 9c 88 c7 e9 | i64.const 2941726050438934542
 0048aa: 28                         | 
 0048ab: 10 a2 80 80 80 00          | call 34
 0048b1: 20 00                      | local.get 0
 0048b3: 29 03 00                   | i64.load 3 0
 0048b6: 20 00                      | local.get 0
 0048b8: 29 03 08                   | i64.load 3 8
 0048bb: 10 ad 80 80 80 00          | call 45
 0048c1: 21 01                      | local.set 1
 0048c3: 20 00                      | local.get 0
 0048c5: 41 10                      | i32.const 16
 0048c7: 6a                         | i32.add
 0048c8: 24 80 80 80 80 00          | global.set 0
 0048ce: 20 01                      | local.get 1
 0048d0: 0b                         | end
0048d2 func[129] <get_contract_link>:
 0048d3: 01 7f                      | local[0] type=i32
 0048d5: 01 7e                      | local[1] type=i64
 0048d7: 23 80 80 80 80 00          | global.get 0
 0048dd: 41 10                      | i32.const 16
 0048df: 6b                         | i32.sub
 0048e0: 22 00                      | local.tee 0
 0048e2: 24 80 80 80 80 00          | global.set 0
 0048e8: 20 00                      | local.get 0
 0048ea: 42 8e e0 b3 b7 9c c8 cf e9 | i64.const 2941763433834278926
 0048f3: 28                         | 
 0048f4: 10 a2 80 80 80 00          | call 34
 0048fa: 20 00                      | local.get 0
 0048fc: 29 03 00                   | i64.load 3 0
 0048ff: 20 00                      | local.get 0
 004901: 29 03 08                   | i64.load 3 8
 004904: 10 ad 80 80 80 00          | call 45
 00490a: 21 01                      | local.set 1
 00490c: 20 00                      | local.get 0
 00490e: 41 10                      | i32.const 16
 004910: 6a                         | i32.add
 004911: 24 80 80 80 80 00          | global.set 0
 004917: 20 01                      | local.get 1
 004919: 0b                         | end
00491c func[130] <set_last_payment>:
 00491d: 01 7f                      | local[2] type=i32
 00491f: 02 40                      | block
 004921: 20 00                      |   local.get 0
 004923: 42 ff 01                   |   i64.const 255
 004926: 83                         |   i64.and
 004927: 42 cd 00                   |   i64.const 77
 00492a: 52                         |   i64.ne
 00492b: 0d 00                      |   br_if 0
 00492d: 20 01                      |   local.get 1
 00492f: 42 ff 01                   |   i64.const 255
 004932: 83                         |   i64.and
 004933: 42 c9 00                   |   i64.const 73
 004936: 52                         |   i64.ne
 004937: 0d 00                      |   br_if 0
 004939: 02 40                      |   block
 00493b: 20 00                      |     local.get 0
 00493d: 10 ce 80 80 80 00          |     call 78
 004943: 0d 00                      |     br_if 0
 004945: 42 8e da b9 dd b9 d6 03    |     i64.const 16164573834510
 00494d: 0f                         |     return
 00494e: 0b                         |   end
 00494f: 02 40                      |   block
 004951: 20 01                      |     local.get 1
 004953: 41 03                      |     i32.const 3
 004955: 41 e4 00                   |     i32.const 100
 004958: 10 d1 80 80 80 00          |     call 81
 00495e: 41 ff 01                   |     i32.const 255
 004961: 71                         |     i32.and
 004962: 22 02                      |     local.tee 2
 004964: 41 1f                      |     i32.const 31
 004966: 46                         |     i32.eq
 004967: 0d 00                      |     br_if 0
 004969: 20 02                      |     local.get 2
 00496b: 41 03                      |     i32.const 3
 00496d: 74                         |     i32.shl
 00496e: 41 98 84 c0 80 00          |     i32.const 1049112
 004974: 6a                         |     i32.add
 004975: 29 03 00                   |     i64.load 3 0
 004978: 0f                         |     return
 004979: 0b                         |   end
 00497a: 20 00                      |   local.get 0
 00497c: 10 8a 80 80 80 00          |   call 10 <a.0>
 004982: 1a                         |   drop
 004983: 02 40                      |   block
 004985: 20 01                      |     local.get 1
 004987: 10 87 80 80 80 00          |     call 7 <b.k>
 00498d: 42 80 80 80 80 10          |     i64.const 4294967296
 004993: 5a                         |     i64.ge_u
 004994: 0d 00                      |     br_if 0
 004996: 42 8e fc f9 da ac 05       |     i64.const 183800593934
 00499d: 0f                         |     return
 00499e: 0b                         |   end
 00499f: 42 8e fc e6 ba 90 c7 9b e3 |   i64.const 55853236604222990
 0049a8: 00                         | 
 0049a9: 20 01                      |   local.get 1
 0049ab: 10 a6 80 80 80 00          |   call 38
 0049b1: 42 8e d2 ea dc 99 ad eb 01 |   i64.const 1035094023907598
 0049ba: 0f                         |   return
 0049bb: 0b                         | end
 0049bc: 00                         | unreachable
 0049bd: 0b                         | end
0049bf func[131] <get_last_payment>:
 0049c0: 01 7f                      | local[0] type=i32
 0049c2: 01 7e                      | local[1] type=i64
 0049c4: 23 80 80 80 80 00          | global.get 0
 0049ca: 41 10                      | i32.const 16
 0049cc: 6b                         | i32.sub
 0049cd: 22 00                      | local.tee 0
 0049cf: 24 80 80 80 80 00          | global.set 0
 0049d5: 20 00                      | local.get 0
 0049d7: 42 8e fc e6 ba 90 c7 9b e3 | i64.const 55853236604222990
 0049e0: 00                         | 
 0049e1: 10 a2 80 80 80 00          | call 34
 0049e7: 20 00                      | local.get 0
 0049e9: 29 03 00                   | i64.load 3 0
 0049ec: 20 00                      | local.get 0
 0049ee: 29 03 08                   | i64.load 3 8
 0049f1: 10 ad 80 80 80 00          | call 45
 0049f7: 21 01                      | local.set 1
 0049f9: 20 00                      | local.get 0
 0049fb: 41 10                      | i32.const 16
 0049fd: 6a                         | i32.add
 0049fe: 24 80 80 80 80 00          | global.set 0
 004a04: 20 01                      | local.get 1
 004a06: 0b                         | end
004a08 func[132] <update_proxy_pool_address>:
 004a09: 02 40                      | block
 004a0b: 20 00                      |   local.get 0
 004a0d: 42 ff 01                   |   i64.const 255
 004a10: 83                         |   i64.and
 004a11: 42 cd 00                   |   i64.const 77
 004a14: 52                         |   i64.ne
 004a15: 0d 00                      |   br_if 0
 004a17: 20 01                      |   local.get 1
 004a19: 42 ff 01                   |   i64.const 255
 004a1c: 83                         |   i64.and
 004a1d: 42 cd 00                   |   i64.const 77
 004a20: 52                         |   i64.ne
 004a21: 0d 00                      |   br_if 0
 004a23: 20 01                      |   local.get 1
 004a25: 10 ca 80 80 80 00          |   call 74
 004a2b: 42 8e d2 ea dc 99 ad eb 01 |   i64.const 1035094023907598
 004a34: 0f                         |   return
 004a35: 0b                         | end
 004a36: 00                         | unreachable
 004a37: 0b                         | end
004a39 func[133] <is_pool_configured>:
 004a3a: 01 7f                      | local[0] type=i32
 004a3c: 01 7e                      | local[1] type=i64
 004a3e: 23 80 80 80 80 00          | global.get 0
 004a44: 41 10                      | i32.const 16
 004a46: 6b                         | i32.sub
 004a47: 22 00                      | local.tee 0
 004a49: 24 80 80 80 80 00          | global.set 0
 004a4f: 20 00                      | local.get 0
 004a51: 10 cb 80 80 80 00          | call 75
 004a57: 20 00                      | local.get 0
 004a59: 29 03 00                   | i64.load 3 0
 004a5c: 21 01                      | local.set 1
 004a5e: 20 00                      | local.get 0
 004a60: 41 10                      | i32.const 16
 004a62: 6a                         | i32.add
 004a63: 24 80 80 80 80 00          | global.set 0
 004a69: 20 01                      | local.get 1
 004a6b: 0b                         | end
004a6d func[134] <set_pool_info>:
 004a6e: 02 40                      | block
 004a70: 20 00                      |   local.get 0
 004a72: 42 ff 01                   |   i64.const 255
 004a75: 83                         |   i64.and
 004a76: 42 cd 00                   |   i64.const 77
 004a79: 52                         |   i64.ne
 004a7a: 0d 00                      |   br_if 0
 004a7c: 20 01                      |   local.get 1
 004a7e: 42 ff 01                   |   i64.const 255
 004a81: 83                         |   i64.and
 004a82: 42 c9 00                   |   i64.const 73
 004a85: 52                         |   i64.ne
 004a86: 0d 00                      |   br_if 0
 004a88: 20 00                      |   local.get 0
 004a8a: 10 8a 80 80 80 00          |   call 10 <a.0>
 004a90: 1a                         |   drop
 004a91: 41 b2 81 c0 80 00          |   i32.const 1048754
 004a97: 41 09                      |   i32.const 9
 004a99: 10 b2 80 80 80 00          |   call 50
 004a9f: 20 01                      |   local.get 1
 004aa1: 10 a6 80 80 80 00          |   call 38
 004aa7: 42 8e d2 ea dc 99 ad eb 01 |   i64.const 1035094023907598
 004ab0: 0f                         |   return
 004ab1: 0b                         | end
 004ab2: 00                         | unreachable
 004ab3: 0b                         | end
004ab5 func[135] <get_pool_info>:
 004ab6: 01 7f                      | local[0] type=i32
 004ab8: 01 7e                      | local[1] type=i64
 004aba: 23 80 80 80 80 00          | global.get 0
 004ac0: 41 10                      | i32.const 16
 004ac2: 6b                         | i32.sub
 004ac3: 22 00                      | local.tee 0
 004ac5: 24 80 80 80 80 00          | global.set 0
 004acb: 20 00                      | local.get 0
 004acd: 41 b2 81 c0 80 00          | i32.const 1048754
 004ad3: 41 09                      | i32.const 9
 004ad5: 10 b2 80 80 80 00          | call 50
 004adb: 10 a2 80 80 80 00          | call 34
 004ae1: 20 00                      | local.get 0
 004ae3: 29 03 00                   | i64.load 3 0
 004ae6: 20 00                      | local.get 0
 004ae8: 29 03 08                   | i64.load 3 8
 004aeb: 10 ad 80 80 80 00          | call 45
 004af1: 21 01                      | local.set 1
 004af3: 20 00                      | local.get 0
 004af5: 41 10                      | i32.const 16
 004af7: 6a                         | i32.add
 004af8: 24 80 80 80 80 00          | global.set 0
 004afe: 20 01                      | local.get 1
 004b00: 0b                         | end
004b03 func[136] <get_remaining_balance>:
 004b04: 01 7f                      | local[0] type=i32
 004b06: 04 7e                      | local[1..4] type=i64
 004b08: 23 80 80 80 80 00          | global.get 0
 004b0e: 41 10                      | i32.const 16
 004b10: 6b                         | i32.sub
 004b11: 22 00                      | local.tee 0
 004b13: 24 80 80 80 80 00          | global.set 0
 004b19: 20 00                      | local.get 0
 004b1b: 10 c3 80 80 80 00          | call 67
 004b21: 20 00                      | local.get 0
 004b23: 29 03 00                   | i64.load 3 0
 004b26: 21 01                      | local.set 1
 004b28: 20 00                      | local.get 0
 004b2a: 29 03 08                   | i64.load 3 8
 004b2d: 21 02                      | local.set 2
 004b2f: 20 00                      | local.get 0
 004b31: 10 c4 80 80 80 00          | call 68
 004b37: 02 40                      | block
 004b39: 20 02                      |   local.get 2
 004b3b: 20 00                      |   local.get 0
 004b3d: 29 03 08                   |   i64.load 3 8
 004b40: 22 03                      |   local.tee 3
 004b42: 85                         |   i64.xor
 004b43: 20 02                      |   local.get 2
 004b45: 20 02                      |   local.get 2
 004b47: 20 03                      |   local.get 3
 004b49: 7d                         |   i64.sub
 004b4a: 20 01                      |   local.get 1
 004b4c: 20 00                      |   local.get 0
 004b4e: 29 03 00                   |   i64.load 3 0
 004b51: 22 03                      |   local.tee 3
 004b53: 54                         |   i64.lt_u
 004b54: ad                         |   i64.extend_i32_u
 004b55: 7d                         |   i64.sub
 004b56: 22 04                      |   local.tee 4
 004b58: 85                         |   i64.xor
 004b59: 83                         |   i64.and
 004b5a: 42 7f                      |   i64.const 18446744073709551615
 004b5c: 55                         |   i64.gt_s
 004b5d: 0d 00                      |   br_if 0
 004b5f: 10 c1 80 80 80 00          |   call 65
 004b65: 00                         |   unreachable
 004b66: 0b                         | end
 004b67: 20 01                      | local.get 1
 004b69: 20 03                      | local.get 3
 004b6b: 7d                         | i64.sub
 004b6c: 20 04                      | local.get 4
 004b6e: 10 a7 80 80 80 00          | call 39
 004b74: 21 02                      | local.set 2
 004b76: 20 00                      | local.get 0
 004b78: 41 10                      | i32.const 16
 004b7a: 6a                         | i32.add
 004b7b: 24 80 80 80 80 00          | global.set 0
 004b81: 20 02                      | local.get 2
 004b83: 0b                         | end
004b85 func[137] <get_accumulate>:
 004b86: 01 7f                      | local[0] type=i32
 004b88: 01 7e                      | local[1] type=i64
 004b8a: 23 80 80 80 80 00          | global.get 0
 004b90: 41 10                      | i32.const 16
 004b92: 6b                         | i32.sub
 004b93: 22 00                      | local.tee 0
 004b95: 24 80 80 80 80 00          | global.set 0
 004b9b: 20 00                      | local.get 0
 004b9d: 41 a1 80 c0 80 00          | i32.const 1048609
 004ba3: 41 05                      | i32.const 5
 004ba5: 10 b7 80 80 80 00          | call 55
 004bab: 20 00                      | local.get 0
 004bad: 29 03 00                   | i64.load 3 0
 004bb0: 20 00                      | local.get 0
 004bb2: 29 03 08                   | i64.load 3 8
 004bb5: 10 a7 80 80 80 00          | call 39
 004bbb: 21 01                      | local.set 1
 004bbd: 20 00                      | local.get 0
 004bbf: 41 10                      | i32.const 16
 004bc1: 6a                         | i32.add
 004bc2: 24 80 80 80 80 00          | global.set 0
 004bc8: 20 01                      | local.get 1
 004bca: 0b                         | end
004bcc func[138] <get_amortization_accumulate>:
 004bcd: 01 7f                      | local[0] type=i32
 004bcf: 01 7e                      | local[1] type=i64
 004bd1: 23 80 80 80 80 00          | global.get 0
 004bd7: 41 10                      | i32.const 16
 004bd9: 6b                         | i32.sub
 004bda: 22 00                      | local.tee 0
 004bdc: 24 80 80 80 80 00          | global.set 0
 004be2: 20 00                      | local.get 0
 004be4: 41 a6 80 c0 80 00          | i32.const 1048614
 004bea: 41 08                      | i32.const 8
 004bec: 10 b7 80 80 80 00          | call 55
 004bf2: 20 00                      | local.get 0
 004bf4: 29 03 00                   | i64.load 3 0
 004bf7: 20 00                      | local.get 0
 004bf9: 29 03 08                   | i64.load 3 8
 004bfc: 10 a7 80 80 80 00          | call 39
 004c02: 21 01                      | local.set 1
 004c04: 20 00                      | local.get 0
 004c06: 41 10                      | i32.const 16
 004c08: 6a                         | i32.add
 004c09: 24 80 80 80 80 00          | global.set 0
 004c0f: 20 01                      | local.get 1
 004c11: 0b                         | end
004c13 func[139] <get_fee_accumulate>:
 004c14: 01 7f                      | local[0] type=i32
 004c16: 01 7e                      | local[1] type=i64
 004c18: 23 80 80 80 80 00          | global.get 0
 004c1e: 41 10                      | i32.const 16
 004c20: 6b                         | i32.sub
 004c21: 22 00                      | local.tee 0
 004c23: 24 80 80 80 80 00          | global.set 0
 004c29: 20 00                      | local.get 0
 004c2b: 41 ae 80 c0 80 00          | i32.const 1048622
 004c31: 41 07                      | i32.const 7
 004c33: 10 b7 80 80 80 00          | call 55
 004c39: 20 00                      | local.get 0
 004c3b: 29 03 00                   | i64.load 3 0
 004c3e: 20 00                      | local.get 0
 004c40: 29 03 08                   | i64.load 3 8
 004c43: 10 a7 80 80 80 00          | call 39
 004c49: 21 01                      | local.set 1
 004c4b: 20 00                      | local.get 0
 004c4d: 41 10                      | i32.const 16
 004c4f: 6a                         | i32.add
 004c50: 24 80 80 80 80 00          | global.set 0
 004c56: 20 01                      | local.get 1
 004c58: 0b                         | end
004c5a func[140] <get_total_fee_paid>:
 004c5b: 01 7f                      | local[0] type=i32
 004c5d: 01 7e                      | local[1] type=i64
 004c5f: 23 80 80 80 80 00          | global.get 0
 004c65: 41 10                      | i32.const 16
 004c67: 6b                         | i32.sub
 004c68: 22 00                      | local.tee 0
 004c6a: 24 80 80 80 80 00          | global.set 0
 004c70: 20 00                      | local.get 0
 004c72: 41 b5 80 c0 80 00          | i32.const 1048629
 004c78: 41 07                      | i32.const 7
 004c7a: 10 b7 80 80 80 00          | call 55
 004c80: 20 00                      | local.get 0
 004c82: 29 03 00                   | i64.load 3 0
 004c85: 20 00                      | local.get 0
 004c87: 29 03 08                   | i64.load 3 8
 004c8a: 10 a7 80 80 80 00          | call 39
 004c90: 21 01                      | local.set 1
 004c92: 20 00                      | local.get 0
 004c94: 41 10                      | i32.const 16
 004c96: 6a                         | i32.add
 004c97: 24 80 80 80 80 00          | global.set 0
 004c9d: 20 01                      | local.get 1
 004c9f: 0b                         | end
004ca1 func[141] <get_total_amortization_paid>:
 004ca2: 01 7f                      | local[0] type=i32
 004ca4: 01 7e                      | local[1] type=i64
 004ca6: 23 80 80 80 80 00          | global.get 0
 004cac: 41 10                      | i32.const 16
 004cae: 6b                         | i32.sub
 004caf: 22 00                      | local.tee 0
 004cb1: 24 80 80 80 80 00          | global.set 0
 004cb7: 20 00                      | local.get 0
 004cb9: 41 bc 80 c0 80 00          | i32.const 1048636
 004cbf: 41 08                      | i32.const 8
 004cc1: 10 b7 80 80 80 00          | call 55
 004cc7: 20 00                      | local.get 0
 004cc9: 29 03 00                   | i64.load 3 0
 004ccc: 20 00                      | local.get 0
 004cce: 29 03 08                   | i64.load 3 8
 004cd1: 10 a7 80 80 80 00          | call 39
 004cd7: 21 01                      | local.set 1
 004cd9: 20 00                      | local.get 0
 004cdb: 41 10                      | i32.const 16
 004cdd: 6a                         | i32.add
 004cde: 24 80 80 80 80 00          | global.set 0
 004ce4: 20 01                      | local.get 1
 004ce6: 0b                         | end
004ce8 func[142] <get_debit_total_paid>:
 004ce9: 02 7f                      | local[1..2] type=i32
 004ceb: 23 80 80 80 80 00          | global.get 0
 004cf1: 41 10                      | i32.const 16
 004cf3: 6b                         | i32.sub
 004cf4: 22 01                      | local.tee 1
 004cf6: 24 80 80 80 80 00          | global.set 0
 004cfc: 02 40                      | block
 004cfe: 20 00                      |   local.get 0
 004d00: a7                         |   i32.wrap_i64
 004d01: 41 ff 01                   |   i32.const 255
 004d04: 71                         |   i32.and
 004d05: 22 02                      |   local.tee 2
 004d07: 41 0e                      |   i32.const 14
 004d09: 46                         |   i32.eq
 004d0a: 0d 00                      |   br_if 0
 004d0c: 20 02                      |   local.get 2
 004d0e: 41 ca 00                   |   i32.const 74
 004d11: 46                         |   i32.eq
 004d12: 0d 00                      |   br_if 0
 004d14: 00                         |   unreachable
 004d15: 0b                         | end
 004d16: 20 01                      | local.get 1
 004d18: 41 98 82 c0 80 00          | i32.const 1048856
 004d1e: 41 0b                      | i32.const 11
 004d20: 20 00                      | local.get 0
 004d22: 10 ba 80 80 80 00          | call 58
 004d28: 20 01                      | local.get 1
 004d2a: 29 03 00                   | i64.load 3 0
 004d2d: 20 01                      | local.get 1
 004d2f: 29 03 08                   | i64.load 3 8
 004d32: 10 a7 80 80 80 00          | call 39
 004d38: 21 00                      | local.set 0
 004d3a: 20 01                      | local.get 1
 004d3c: 41 10                      | i32.const 16
 004d3e: 6a                         | i32.add
 004d3f: 24 80 80 80 80 00          | global.set 0
 004d45: 20 00                      | local.get 0
 004d47: 0b                         | end
004d49 func[143] <get_debit_paid_date>:
 004d4a: 01 7f                      | local[1] type=i32
 004d4c: 02 40                      | block
 004d4e: 20 00                      |   local.get 0
 004d50: a7                         |   i32.wrap_i64
 004d51: 41 ff 01                   |   i32.const 255
 004d54: 71                         |   i32.and
 004d55: 22 01                      |   local.tee 1
 004d57: 41 0e                      |   i32.const 14
 004d59: 46                         |   i32.eq
 004d5a: 0d 00                      |   br_if 0
 004d5c: 20 01                      |   local.get 1
 004d5e: 41 ca 00                   |   i32.const 74
 004d61: 46                         |   i32.eq
 004d62: 0d 00                      |   br_if 0
 004d64: 00                         |   unreachable
 004d65: 0b                         | end
 004d66: 41 8d 82 c0 80 00          | i32.const 1048845
 004d6c: 41 0b                      | i32.const 11
 004d6e: 20 00                      | local.get 0
 004d70: 10 bc 80 80 80 00          | call 60
 004d76: 10 ae 80 80 80 00          | call 46
 004d7c: 0b                         | end
004d7e func[144] <set_pool_address>:
 004d7f: 01 7e                      | local[2] type=i64
 004d81: 02 40                      | block
 004d83: 20 00                      |   local.get 0
 004d85: 42 ff 01                   |   i64.const 255
 004d88: 83                         |   i64.and
 004d89: 42 cd 00                   |   i64.const 77
 004d8c: 52                         |   i64.ne
 004d8d: 0d 00                      |   br_if 0
 004d8f: 20 01                      |   local.get 1
 004d91: 42 ff 01                   |   i64.const 255
 004d94: 83                         |   i64.and
 004d95: 42 cd 00                   |   i64.const 77
 004d98: 52                         |   i64.ne
 004d99: 0d 00                      |   br_if 0
 004d9b: 42 8e da b9 dd b9 d6 03    |   i64.const 16164573834510
 004da3: 21 02                      |   local.set 2
 004da5: 02 40                      |   block
 004da7: 20 00                      |     local.get 0
 004da9: 10 ce 80 80 80 00          |     call 78
 004daf: 45                         |     i32.eqz
 004db0: 0d 00                      |     br_if 0
 004db2: 20 01                      |     local.get 1
 004db4: 10 ca 80 80 80 00          |     call 74
 004dba: 42 8e d2 ea dc 99 ad eb 01 |     i64.const 1035094023907598
 004dc3: 21 02                      |     local.set 2
 004dc5: 0b                         |   end
 004dc6: 20 02                      |   local.get 2
 004dc8: 0f                         |   return
 004dc9: 0b                         | end
 004dca: 00                         | unreachable
 004dcb: 0b                         | end
004dcd func[145] <get_proxy_pool_address>:
 004dce: 01 7f                      | local[0] type=i32
 004dd0: 01 7e                      | local[1] type=i64
 004dd2: 23 80 80 80 80 00          | global.get 0
 004dd8: 41 10                      | i32.const 16
 004dda: 6b                         | i32.sub
 004ddb: 22 00                      | local.tee 0
 004ddd: 24 80 80 80 80 00          | global.set 0
 004de3: 20 00                      | local.get 0
 004de5: 10 cb 80 80 80 00          | call 75
 004deb: 20 00                      | local.get 0
 004ded: 29 03 00                   | i64.load 3 0
 004df0: 20 00                      | local.get 0
 004df2: 29 03 08                   | i64.load 3 8
 004df5: 10 ad 80 80 80 00          | call 45
 004dfb: 21 01                      | local.set 1
 004dfd: 20 00                      | local.get 0
 004dff: 41 10                      | i32.const 16
 004e01: 6a                         | i32.add
 004e02: 24 80 80 80 80 00          | global.set 0
 004e08: 20 01                      | local.get 1
 004e0a: 0b                         | end
004e0d func[146] <operator_redistribute_payment>:
 004e0e: 01 7f                      | local[4] type=i32
 004e10: 04 7e                      | local[5..8] type=i64
 004e12: 23 80 80 80 80 00          | global.get 0
 004e18: 41 20                      | i32.const 32
 004e1a: 6b                         | i32.sub
 004e1b: 22 04                      | local.tee 4
 004e1d: 24 80 80 80 80 00          | global.set 0
 004e23: 02 40                      | block
 004e25: 20 00                      |   local.get 0
 004e27: 42 ff 01                   |   i64.const 255
 004e2a: 83                         |   i64.and
 004e2b: 42 cd 00                   |   i64.const 77
 004e2e: 52                         |   i64.ne
 004e2f: 0d 00                      |   br_if 0
 004e31: 20 04                      |   local.get 4
 004e33: 20 01                      |   local.get 1
 004e35: 10 9f 80 80 80 00          |   call 31
 004e3b: 20 04                      |   local.get 4
 004e3d: 28 02 00                   |   i32.load 2 0
 004e40: 41 01                      |   i32.const 1
 004e42: 46                         |   i32.eq
 004e43: 0d 00                      |   br_if 0
 004e45: 20 04                      |   local.get 4
 004e47: 29 03 18                   |   i64.load 3 24
 004e4a: 21 01                      |   local.set 1
 004e4c: 20 04                      |   local.get 4
 004e4e: 29 03 10                   |   i64.load 3 16
 004e51: 21 05                      |   local.set 5
 004e53: 20 04                      |   local.get 4
 004e55: 20 02                      |   local.get 2
 004e57: 10 9f 80 80 80 00          |   call 31
 004e5d: 20 04                      |   local.get 4
 004e5f: 28 02 00                   |   i32.load 2 0
 004e62: 41 01                      |   i32.const 1
 004e64: 46                         |   i32.eq
 004e65: 0d 00                      |   br_if 0
 004e67: 20 04                      |   local.get 4
 004e69: 29 03 18                   |   i64.load 3 24
 004e6c: 21 02                      |   local.set 2
 004e6e: 20 04                      |   local.get 4
 004e70: 29 03 10                   |   i64.load 3 16
 004e73: 21 06                      |   local.set 6
 004e75: 20 04                      |   local.get 4
 004e77: 20 03                      |   local.get 3
 004e79: 10 9f 80 80 80 00          |   call 31
 004e7f: 20 04                      |   local.get 4
 004e81: 28 02 00                   |   i32.load 2 0
 004e84: 41 01                      |   i32.const 1
 004e86: 46                         |   i32.eq
 004e87: 0d 00                      |   br_if 0
 004e89: 20 04                      |   local.get 4
 004e8b: 29 03 18                   |   i64.load 3 24
 004e8e: 21 03                      |   local.set 3
 004e90: 20 04                      |   local.get 4
 004e92: 29 03 10                   |   i64.load 3 16
 004e95: 21 07                      |   local.set 7
 004e97: 20 00                      |   local.get 0
 004e99: 10 8a 80 80 80 00          |   call 10 <a.0>
 004e9f: 1a                         |   drop
 004ea0: 02 40                      |   block
 004ea2: 02 40                      |     block
 004ea4: 20 00                      |       local.get 0
 004ea6: 10 ce 80 80 80 00          |       call 78
 004eac: 0d 00                      |       br_if 0
 004eae: 42 8e da b9 dd 99 a0 cf 01 |       i64.const 911502046293262
 004eb7: 21 00                      |       local.set 0
 004eb9: 0c 01                      |       br 1
 004ebb: 0b                         |     end
 004ebc: 02 40                      |     block
 004ebe: 20 05                      |       local.get 5
 004ec0: 50                         |       i64.eqz
 004ec1: 20 01                      |       local.get 1
 004ec3: 42 00                      |       i64.const 0
 004ec5: 53                         |       i64.lt_s
 004ec6: 20 01                      |       local.get 1
 004ec8: 50                         |       i64.eqz
 004ec9: 1b                         |       select
 004eca: 45                         |       i32.eqz
 004ecb: 0d 00                      |       br_if 0
 004ecd: 42 8e f2 b2 b3 b0 9f bb 01 |       i64.const 823512842156302
 004ed6: 21 00                      |       local.set 0
 004ed8: 0c 01                      |       br 1
 004eda: 0b                         |     end
 004edb: 02 40                      |     block
 004edd: 02 40                      |       block
 004edf: 20 02                      |         local.get 2
 004ee1: 20 03                      |         local.get 3
 004ee3: 85                         |         i64.xor
 004ee4: 42 7f                      |         i64.const 18446744073709551615
 004ee6: 85                         |         i64.xor
 004ee7: 20 02                      |         local.get 2
 004ee9: 20 02                      |         local.get 2
 004eeb: 20 03                      |         local.get 3
 004eed: 7c                         |         i64.add
 004eee: 20 06                      |         local.get 6
 004ef0: 20 07                      |         local.get 7
 004ef2: 7c                         |         i64.add
 004ef3: 22 00                      |         local.tee 0
 004ef5: 20 06                      |         local.get 6
 004ef7: 54                         |         i64.lt_u
 004ef8: ad                         |         i64.extend_i32_u
 004ef9: 7c                         |         i64.add
 004efa: 22 08                      |         local.tee 8
 004efc: 85                         |         i64.xor
 004efd: 83                         |         i64.and
 004efe: 42 00                      |         i64.const 0
 004f00: 53                         |         i64.lt_s
 004f01: 0d 00                      |         br_if 0
 004f03: 20 00                      |         local.get 0
 004f05: 20 05                      |         local.get 5
 004f07: 85                         |         i64.xor
 004f08: 20 08                      |         local.get 8
 004f0a: 20 01                      |         local.get 1
 004f0c: 85                         |         i64.xor
 004f0d: 84                         |         i64.or
 004f0e: 50                         |         i64.eqz
 004f0f: 0d 01                      |         br_if 1
 004f11: 42 8e e4 ba bc b0 9f bb 01 |         i64.const 823512861159950
 004f1a: 21 00                      |         local.set 0
 004f1c: 0c 02                      |         br 2
 004f1e: 0b                         |       end
 004f1f: 10 c1 80 80 80 00          |       call 65
 004f25: 00                         |       unreachable
 004f26: 0b                         |     end
 004f27: 20 05                      |     local.get 5
 004f29: 20 01                      |     local.get 1
 004f2b: 20 06                      |     local.get 6
 004f2d: 20 02                      |     local.get 2
 004f2f: 20 07                      |     local.get 7
 004f31: 20 03                      |     local.get 3
 004f33: 10 cc 80 80 80 00          |     call 76
 004f39: 21 00                      |     local.set 0
 004f3b: 0b                         |   end
 004f3c: 20 04                      |   local.get 4
 004f3e: 41 20                      |   i32.const 32
 004f40: 6a                         |   i32.add
 004f41: 24 80 80 80 80 00          |   global.set 0
 004f47: 20 00                      |   local.get 0
 004f49: 0f                         |   return
 004f4a: 0b                         | end
 004f4b: 00                         | unreachable
 004f4c: 0b                         | end
004f4e func[147] <has_role>:
 004f4f: 02 7f                      | local[2..3] type=i32
 004f51: 23 80 80 80 80 00          | global.get 0
 004f57: 41 10                      | i32.const 16
 004f59: 6b                         | i32.sub
 004f5a: 22 02                      | local.tee 2
 004f5c: 24 80 80 80 80 00          | global.set 0
 004f62: 02 40                      | block
 004f64: 20 00                      |   local.get 0
 004f66: 42 ff 01                   |   i64.const 255
 004f69: 83                         |   i64.and
 004f6a: 42 cd 00                   |   i64.const 77
 004f6d: 52                         |   i64.ne
 004f6e: 0d 00                      |   br_if 0
 004f70: 02 40                      |   block
 004f72: 20 01                      |     local.get 1
 004f74: a7                         |     i32.wrap_i64
 004f75: 41 ff 01                   |     i32.const 255
 004f78: 71                         |     i32.and
 004f79: 22 03                      |     local.tee 3
 004f7b: 41 0e                      |     i32.const 14
 004f7d: 46                         |     i32.eq
 004f7e: 0d 00                      |     br_if 0
 004f80: 20 03                      |     local.get 3
 004f82: 41 ca 00                   |     i32.const 74
 004f85: 47                         |     i32.ne
 004f86: 0d 01                      |     br_if 1
 004f88: 0b                         |   end
 004f89: 20 02                      |   local.get 2
 004f8b: 41 08                      |   i32.const 8
 004f8d: 6a                         |   i32.add
 004f8e: 20 00                      |   local.get 0
 004f90: 20 01                      |   local.get 1
 004f92: 10 cf 80 80 80 00          |   call 79
 004f98: 20 02                      |   local.get 2
 004f9a: 28 02 08                   |   i32.load 2 8
 004f9d: 21 03                      |   local.set 3
 004f9f: 20 02                      |   local.get 2
 004fa1: 35 02 0c                   |   i64.load32_u 2 12
 004fa4: 21 00                      |   local.set 0
 004fa6: 20 02                      |   local.get 2
 004fa8: 41 10                      |   i32.const 16
 004faa: 6a                         |   i32.add
 004fab: 24 80 80 80 80 00          |   global.set 0
 004fb1: 20 00                      |   local.get 0
 004fb3: 42 20                      |   i64.const 32
 004fb5: 86                         |   i64.shl
 004fb6: 42 04                      |   i64.const 4
 004fb8: 84                         |   i64.or
 004fb9: 42 02                      |   i64.const 2
 004fbb: 20 03                      |   local.get 3
 004fbd: 41 01                      |   i32.const 1
 004fbf: 71                         |   i32.and
 004fc0: 1b                         |   select
 004fc1: 0f                         |   return
 004fc2: 0b                         | end
 004fc3: 00                         | unreachable
 004fc4: 0b                         | end
004fc7 func[148] <get_role_member_count>:
 004fc8: 02 7f                      | local[1..2] type=i32
 004fca: 23 80 80 80 80 00          | global.get 0
 004fd0: 41 20                      | i32.const 32
 004fd2: 6b                         | i32.sub
 004fd3: 22 01                      | local.tee 1
 004fd5: 24 80 80 80 80 00          | global.set 0
 004fdb: 02 40                      | block
 004fdd: 02 40                      |   block
 004fdf: 20 00                      |     local.get 0
 004fe1: a7                         |     i32.wrap_i64
 004fe2: 41 ff 01                   |     i32.const 255
 004fe5: 71                         |     i32.and
 004fe6: 22 02                      |     local.tee 2
 004fe8: 41 0e                      |     i32.const 14
 004fea: 46                         |     i32.eq
 004feb: 0d 00                      |     br_if 0
 004fed: 20 02                      |     local.get 2
 004fef: 41 ca 00                   |     i32.const 74
 004ff2: 47                         |     i32.ne
 004ff3: 0d 01                      |     br_if 1
 004ff5: 0b                         |   end
 004ff6: 20 01                      |   local.get 1
 004ff8: 42 02                      |   i64.const 2
 004ffa: 37 03 08                   |   i64.store 3 8
 004ffd: 20 01                      |   local.get 1
 004fff: 20 00                      |   local.get 0
 005001: 37 03 10                   |   i64.store 3 16
 005004: 20 01                      |   local.get 1
 005006: 20 01                      |   local.get 1
 005008: 41 08                      |   i32.const 8
 00500a: 6a                         |   i32.add
 00500b: 10 95 81 80 80 00          |   call 149
 005011: 42 04                      |   i64.const 4
 005013: 21 00                      |   local.set 0
 005015: 02 40                      |   block
 005017: 20 01                      |     local.get 1
 005019: 28 02 00                   |     i32.load 2 0
 00501c: 41 01                      |     i32.const 1
 00501e: 71                         |     i32.and
 00501f: 45                         |     i32.eqz
 005020: 0d 00                      |     br_if 0
 005022: 20 01                      |     local.get 1
 005024: 28 02 04                   |     i32.load 2 4
 005027: ad                         |     i64.extend_i32_u
 005028: 42 20                      |     i64.const 32
 00502a: 86                         |     i64.shl
 00502b: 42 04                      |     i64.const 4
 00502d: 84                         |     i64.or
 00502e: 21 00                      |     local.set 0
 005030: 20 01                      |     local.get 1
 005032: 41 08                      |     i32.const 8
 005034: 6a                         |     i32.add
 005035: 10 96 81 80 80 00          |     call 150
 00503b: 0b                         |   end
 00503c: 20 01                      |   local.get 1
 00503e: 41 20                      |   i32.const 32
 005040: 6a                         |   i32.add
 005041: 24 80 80 80 80 00          |   global.set 0
 005047: 20 00                      |   local.get 0
 005049: 0f                         |   return
 00504a: 0b                         | end
 00504b: 00                         | unreachable
 00504c: 0b                         | end
00504e func[149]:
 00504f: 01 7e                      | local[2] type=i64
 005051: 01 7f                      | local[3] type=i32
 005053: 02 40                      | block
 005055: 02 40                      |   block
 005057: 02 40                      |     block
 005059: 20 01                      |       local.get 1
 00505b: 10 dc 80 80 80 00          |       call 92
 005061: 22 02                      |       local.tee 2
 005063: 42 01                      |       i64.const 1
 005065: 10 9d 80 80 80 00          |       call 29
 00506b: 0d 00                      |       br_if 0
 00506d: 41 00                      |       i32.const 0
 00506f: 21 01                      |       local.set 1
 005071: 0c 01                      |       br 1
 005073: 0b                         |     end
 005074: 20 02                      |     local.get 2
 005076: 42 01                      |     i64.const 1
 005078: 10 82 80 80 80 00          |     call 2 <l.1>
 00507e: 22 02                      |     local.tee 2
 005080: 42 ff 01                   |     i64.const 255
 005083: 83                         |     i64.and
 005084: 42 04                      |     i64.const 4
 005086: 52                         |     i64.ne
 005087: 0d 01                      |     br_if 1
 005089: 20 02                      |     local.get 2
 00508b: 42 20                      |     i64.const 32
 00508d: 88                         |     i64.shr_u
 00508e: a7                         |     i32.wrap_i64
 00508f: 21 03                      |     local.set 3
 005091: 41 01                      |     i32.const 1
 005093: 21 01                      |     local.set 1
 005095: 0b                         |   end
 005096: 20 00                      |   local.get 0
 005098: 20 03                      |   local.get 3
 00509a: 36 02 04                   |   i32.store 2 4
 00509d: 20 00                      |   local.get 0
 00509f: 20 01                      |   local.get 1
 0050a1: 36 02 00                   |   i32.store 2 0
 0050a4: 0f                         |   return
 0050a5: 0b                         | end
 0050a6: 00                         | unreachable
 0050a7: 0b                         | end
0050a9 func[150]:
 0050aa: 20 00                      | local.get 0
 0050ac: 42 01                      | i64.const 1
 0050ae: 41 80 ef dd 00             | i32.const 1537920
 0050b3: 41 80 f6 de 00             | i32.const 1555200
 0050b8: 10 aa 81 80 80 00          | call 170
 0050be: 0b                         | end
0050c1 func[151] <get_role_member>:
 0050c2: 02 7f                      | local[2..3] type=i32
 0050c4: 23 80 80 80 80 00          | global.get 0
 0050ca: 41 30                      | i32.const 48
 0050cc: 6b                         | i32.sub
 0050cd: 22 02                      | local.tee 2
 0050cf: 24 80 80 80 80 00          | global.set 0
 0050d5: 02 40                      | block
 0050d7: 02 40                      |   block
 0050d9: 02 40                      |     block
 0050db: 20 00                      |       local.get 0
 0050dd: a7                         |       i32.wrap_i64
 0050de: 41 ff 01                   |       i32.const 255
 0050e1: 71                         |       i32.and
 0050e2: 22 03                      |       local.tee 3
 0050e4: 41 0e                      |       i32.const 14
 0050e6: 46                         |       i32.eq
 0050e7: 0d 00                      |       br_if 0
 0050e9: 20 03                      |       local.get 3
 0050eb: 41 ca 00                   |       i32.const 74
 0050ee: 47                         |       i32.ne
 0050ef: 0d 01                      |       br_if 1
 0050f1: 0b                         |     end
 0050f2: 20 01                      |     local.get 1
 0050f4: 42 ff 01                   |     i64.const 255
 0050f7: 83                         |     i64.and
 0050f8: 42 04                      |     i64.const 4
 0050fa: 52                         |     i64.ne
 0050fb: 0d 00                      |     br_if 0
 0050fd: 20 02                      |     local.get 2
 0050ff: 20 00                      |     local.get 0
 005101: 37 03 10                   |     i64.store 3 16
 005104: 20 02                      |     local.get 2
 005106: 42 00                      |     i64.const 0
 005108: 37 03 08                   |     i64.store 3 8
 00510b: 20 02                      |     local.get 2
 00510d: 20 01                      |     local.get 1
 00510f: 42 20                      |     i64.const 32
 005111: 88                         |     i64.shr_u
 005112: 3e 02 18                   |     i64.store32 2 24
 005115: 20 02                      |     local.get 2
 005117: 41 20                      |     i32.const 32
 005119: 6a                         |     i32.add
 00511a: 20 02                      |     local.get 2
 00511c: 41 08                      |     i32.const 8
 00511e: 6a                         |     i32.add
 00511f: 10 98 81 80 80 00          |     call 152
 005125: 20 02                      |     local.get 2
 005127: 28 02 20                   |     i32.load 2 32
 00512a: 45                         |     i32.eqz
 00512b: 0d 01                      |     br_if 1
 00512d: 20 02                      |     local.get 2
 00512f: 29 03 28                   |     i64.load 3 40
 005132: 21 00                      |     local.set 0
 005134: 20 02                      |     local.get 2
 005136: 41 08                      |     i32.const 8
 005138: 6a                         |     i32.add
 005139: 10 96 81 80 80 00          |     call 150
 00513f: 20 02                      |     local.get 2
 005141: 41 30                      |     i32.const 48
 005143: 6a                         |     i32.add
 005144: 24 80 80 80 80 00          |     global.set 0
 00514a: 20 00                      |     local.get 0
 00514c: 0f                         |     return
 00514d: 0b                         |   end
 00514e: 00                         |   unreachable
 00514f: 0b                         | end
 005150: 42 83 80 80 80 c0 97 01    | i64.const 5205500362755
 005158: 10 de 80 80 80 00          | call 94
 00515e: 00                         | unreachable
 00515f: 0b                         | end
005161 func[152]:
 005162: 02 7e                      | local[2..3] type=i64
 005164: 42 00                      | i64.const 0
 005166: 21 02                      | local.set 2
 005168: 02 40                      | block
 00516a: 02 40                      |   block
 00516c: 20 01                      |     local.get 1
 00516e: 10 dc 80 80 80 00          |     call 92
 005174: 22 03                      |     local.tee 3
 005176: 42 01                      |     i64.const 1
 005178: 10 9d 80 80 80 00          |     call 29
 00517e: 45                         |     i32.eqz
 00517f: 0d 00                      |     br_if 0
 005181: 20 03                      |     local.get 3
 005183: 42 01                      |     i64.const 1
 005185: 10 82 80 80 80 00          |     call 2 <l.1>
 00518b: 22 02                      |     local.tee 2
 00518d: 42 ff 01                   |     i64.const 255
 005190: 83                         |     i64.and
 005191: 42 cd 00                   |     i64.const 77
 005194: 52                         |     i64.ne
 005195: 0d 01                      |     br_if 1
 005197: 20 00                      |     local.get 0
 005199: 20 02                      |     local.get 2
 00519b: 37 03 08                   |     i64.store 3 8
 00519e: 42 01                      |     i64.const 1
 0051a0: 21 02                      |     local.set 2
 0051a2: 0b                         |   end
 0051a3: 20 00                      |   local.get 0
 0051a5: 20 02                      |   local.get 2
 0051a7: 37 03 00                   |   i64.store 3 0
 0051aa: 0f                         |   return
 0051ab: 0b                         | end
 0051ac: 00                         | unreachable
 0051ad: 0b                         | end
0051af func[153] <get_role_admin>:
 0051b0: 02 7f                      | local[1..2] type=i32
 0051b2: 23 80 80 80 80 00          | global.get 0
 0051b8: 41 10                      | i32.const 16
 0051ba: 6b                         | i32.sub
 0051bb: 22 01                      | local.tee 1
 0051bd: 24 80 80 80 80 00          | global.set 0
 0051c3: 02 40                      | block
 0051c5: 20 00                      |   local.get 0
 0051c7: a7                         |   i32.wrap_i64
 0051c8: 41 ff 01                   |   i32.const 255
 0051cb: 71                         |   i32.and
 0051cc: 22 02                      |   local.tee 2
 0051ce: 41 0e                      |   i32.const 14
 0051d0: 46                         |   i32.eq
 0051d1: 0d 00                      |   br_if 0
 0051d3: 20 02                      |   local.get 2
 0051d5: 41 ca 00                   |   i32.const 74
 0051d8: 46                         |   i32.eq
 0051d9: 0d 00                      |   br_if 0
 0051db: 00                         |   unreachable
 0051dc: 0b                         | end
 0051dd: 20 01                      | local.get 1
 0051df: 20 00                      | local.get 0
 0051e1: 10 9a 81 80 80 00          | call 154
 0051e7: 20 01                      | local.get 1
 0051e9: 29 03 00                   | i64.load 3 0
 0051ec: 20 01                      | local.get 1
 0051ee: 29 03 08                   | i64.load 3 8
 0051f1: 10 ad 80 80 80 00          | call 45
 0051f7: 21 00                      | local.set 0
 0051f9: 20 01                      | local.get 1
 0051fb: 41 10                      | i32.const 16
 0051fd: 6a                         | i32.add
 0051fe: 24 80 80 80 80 00          | global.set 0
 005204: 20 00                      | local.get 0
 005206: 0b                         | end
005208 func[154]:
 005209: 01 7f                      | local[2] type=i32
 00520b: 01 7e                      | local[3] type=i64
 00520d: 23 80 80 80 80 00          | global.get 0
 005213: 41 30                      | i32.const 48
 005215: 6b                         | i32.sub
 005216: 22 02                      | local.tee 2
 005218: 24 80 80 80 80 00          | global.set 0
 00521e: 20 02                      | local.get 2
 005220: 42 03                      | i64.const 3
 005222: 37 03 08                   | i64.store 3 8
 005225: 20 02                      | local.get 2
 005227: 20 01                      | local.get 1
 005229: 37 03 10                   | i64.store 3 16
 00522c: 20 02                      | local.get 2
 00522e: 41 20                      | i32.const 32
 005230: 6a                         | i32.add
 005231: 20 02                      | local.get 2
 005233: 41 08                      | i32.const 8
 005235: 6a                         | i32.add
 005236: 10 ae 81 80 80 00          | call 174
 00523c: 42 00                      | i64.const 0
 00523e: 21 01                      | local.set 1
 005240: 02 40                      | block
 005242: 20 02                      |   local.get 2
 005244: 29 03 20                   |   i64.load 3 32
 005247: 22 03                      |   local.tee 3
 005249: a7                         |   i32.wrap_i64
 00524a: 41 01                      |   i32.const 1
 00524c: 47                         |   i32.ne
 00524d: 0d 00                      |   br_if 0
 00524f: 20 02                      |   local.get 2
 005251: 41 08                      |   i32.const 8
 005253: 6a                         |   i32.add
 005254: 10 96 81 80 80 00          |   call 150
 00525a: 20 00                      |   local.get 0
 00525c: 20 02                      |   local.get 2
 00525e: 29 03 28                   |   i64.load 3 40
 005261: 37 03 08                   |   i64.store 3 8
 005264: 20 03                      |   local.get 3
 005266: 21 01                      |   local.set 1
 005268: 0b                         | end
 005269: 20 00                      | local.get 0
 00526b: 20 01                      | local.get 1
 00526d: 37 03 00                   | i64.store 3 0
 005270: 20 02                      | local.get 2
 005272: 41 30                      | i32.const 48
 005274: 6a                         | i32.add
 005275: 24 80 80 80 80 00          | global.set 0
 00527b: 0b                         | end
00527d func[155] <get_admin>:
 00527e: 01 7f                      | local[0] type=i32
 005280: 01 7e                      | local[1] type=i64
 005282: 23 80 80 80 80 00          | global.get 0
 005288: 41 10                      | i32.const 16
 00528a: 6b                         | i32.sub
 00528b: 22 00                      | local.tee 0
 00528d: 24 80 80 80 80 00          | global.set 0
 005293: 20 00                      | local.get 0
 005295: 10 9c 81 80 80 00          | call 156
 00529b: 20 00                      | local.get 0
 00529d: 29 03 00                   | i64.load 3 0
 0052a0: 20 00                      | local.get 0
 0052a2: 29 03 08                   | i64.load 3 8
 0052a5: 10 ad 80 80 80 00          | call 45
 0052ab: 21 01                      | local.set 1
 0052ad: 20 00                      | local.get 0
 0052af: 41 10                      | i32.const 16
 0052b1: 6a                         | i32.add
 0052b2: 24 80 80 80 80 00          | global.set 0
 0052b8: 20 01                      | local.get 1
 0052ba: 0b                         | end
0052bc func[156]:
 0052bd: 02 7e                      | local[1..2] type=i64
 0052bf: 42 00                      | i64.const 0
 0052c1: 21 01                      | local.set 1
 0052c3: 02 40                      | block
 0052c5: 02 40                      |   block
 0052c7: 41 90 86 c0 80 00          |     i32.const 1049360
 0052cd: 10 dc 80 80 80 00          |     call 92
 0052d3: 22 02                      |     local.tee 2
 0052d5: 42 02                      |     i64.const 2
 0052d7: 10 9d 80 80 80 00          |     call 29
 0052dd: 45                         |     i32.eqz
 0052de: 0d 00                      |     br_if 0
 0052e0: 20 02                      |     local.get 2
 0052e2: 42 02                      |     i64.const 2
 0052e4: 10 82 80 80 80 00          |     call 2 <l.1>
 0052ea: 22 01                      |     local.tee 1
 0052ec: 42 ff 01                   |     i64.const 255
 0052ef: 83                         |     i64.and
 0052f0: 42 cd 00                   |     i64.const 77
 0052f3: 52                         |     i64.ne
 0052f4: 0d 01                      |     br_if 1
 0052f6: 20 00                      |     local.get 0
 0052f8: 20 01                      |     local.get 1
 0052fa: 37 03 08                   |     i64.store 3 8
 0052fd: 42 01                      |     i64.const 1
 0052ff: 21 01                      |     local.set 1
 005301: 0b                         |   end
 005302: 20 00                      |   local.get 0
 005304: 20 01                      |   local.get 1
 005306: 37 03 00                   |   i64.store 3 0
 005309: 0f                         |   return
 00530a: 0b                         | end
 00530b: 00                         | unreachable
 00530c: 0b                         | end
00530f func[157] <grant_role>:
 005310: 02 7f                      | local[3..4] type=i32
 005312: 23 80 80 80 80 00          | global.get 0
 005318: 41 10                      | i32.const 16
 00531a: 6b                         | i32.sub
 00531b: 22 03                      | local.tee 3
 00531d: 24 80 80 80 80 00          | global.set 0
 005323: 02 40                      | block
 005325: 20 00                      |   local.get 0
 005327: 42 ff 01                   |   i64.const 255
 00532a: 83                         |   i64.and
 00532b: 42 cd 00                   |   i64.const 77
 00532e: 52                         |   i64.ne
 00532f: 0d 00                      |   br_if 0
 005331: 20 01                      |   local.get 1
 005333: 42 ff 01                   |   i64.const 255
 005336: 83                         |   i64.and
 005337: 42 cd 00                   |   i64.const 77
 00533a: 52                         |   i64.ne
 00533b: 0d 00                      |   br_if 0
 00533d: 02 40                      |   block
 00533f: 20 02                      |     local.get 2
 005341: a7                         |     i32.wrap_i64
 005342: 41 ff 01                   |     i32.const 255
 005345: 71                         |     i32.and
 005346: 22 04                      |     local.tee 4
 005348: 41 0e                      |     i32.const 14
 00534a: 46                         |     i32.eq
 00534b: 0d 00                      |     br_if 0
 00534d: 20 04                      |     local.get 4
 00534f: 41 ca 00                   |     i32.const 74
 005352: 47                         |     i32.ne
 005353: 0d 01                      |     br_if 1
 005355: 0b                         |   end
 005356: 20 03                      |   local.get 3
 005358: 20 02                      |   local.get 2
 00535a: 37 03 08                   |   i64.store 3 8
 00535d: 20 03                      |   local.get 3
 00535f: 20 01                      |   local.get 1
 005361: 37 03 00                   |   i64.store 3 0
 005364: 20 00                      |   local.get 0
 005366: 10 8a 80 80 80 00          |   call 10 <a.0>
 00536c: 1a                         |   drop
 00536d: 20 00                      |   local.get 0
 00536f: 20 02                      |   local.get 2
 005371: 10 9e 81 80 80 00          |   call 158
 005377: 20 00                      |   local.get 0
 005379: 20 03                      |   local.get 3
 00537b: 20 03                      |   local.get 3
 00537d: 41 08                      |   i32.const 8
 00537f: 6a                         |   i32.add
 005380: 10 dd 80 80 80 00          |   call 93
 005386: 20 03                      |   local.get 3
 005388: 41 10                      |   i32.const 16
 00538a: 6a                         |   i32.add
 00538b: 24 80 80 80 80 00          |   global.set 0
 005391: 42 02                      |   i64.const 2
 005393: 0f                         |   return
 005394: 0b                         | end
 005395: 00                         | unreachable
 005396: 0b                         | end
005399 func[158]:
 00539a: 02 7f                      | local[2..3] type=i32
 00539c: 23 80 80 80 80 00          | global.get 0
 0053a2: 41 20                      | i32.const 32
 0053a4: 6b                         | i32.sub
 0053a5: 22 02                      | local.tee 2
 0053a7: 24 80 80 80 80 00          | global.set 0
 0053ad: 20 02                      | local.get 2
 0053af: 41 10                      | i32.const 16
 0053b1: 6a                         | i32.add
 0053b2: 10 9c 81 80 80 00          | call 156
 0053b8: 02 40                      | block
 0053ba: 02 40                      |   block
 0053bc: 02 40                      |     block
 0053be: 02 40                      |       block
 0053c0: 20 02                      |         local.get 2
 0053c2: 28 02 10                   |         i32.load 2 16
 0053c5: 41 01                      |         i32.const 1
 0053c7: 47                         |         i32.ne
 0053c8: 0d 00                      |         br_if 0
 0053ca: 20 00                      |         local.get 0
 0053cc: 20 02                      |         local.get 2
 0053ce: 29 03 18                   |         i64.load 3 24
 0053d1: 10 a8 81 80 80 00          |         call 168
 0053d7: 21 03                      |         local.set 3
 0053d9: 20 02                      |         local.get 2
 0053db: 41 10                      |         i32.const 16
 0053dd: 6a                         |         i32.add
 0053de: 20 01                      |         local.get 1
 0053e0: 10 9a 81 80 80 00          |         call 154
 0053e6: 20 02                      |         local.get 2
 0053e8: 28 02 10                   |         i32.load 2 16
 0053eb: 0d 01                      |         br_if 1
 0053ed: 20 03                      |         local.get 3
 0053ef: 0d 02                      |         br_if 2
 0053f1: 0c 03                      |         br 3
 0053f3: 0b                         |       end
 0053f4: 20 02                      |       local.get 2
 0053f6: 41 10                      |       i32.const 16
 0053f8: 6a                         |       i32.add
 0053f9: 20 01                      |       local.get 1
 0053fb: 10 9a 81 80 80 00          |       call 154
 005401: 41 00                      |       i32.const 0
 005403: 21 03                      |       local.set 3
 005405: 20 02                      |       local.get 2
 005407: 28 02 10                   |       i32.load 2 16
 00540a: 41 01                      |       i32.const 1
 00540c: 47                         |       i32.ne
 00540d: 0d 02                      |       br_if 2
 00540f: 0b                         |     end
 005410: 20 02                      |     local.get 2
 005412: 41 08                      |     i32.const 8
 005414: 6a                         |     i32.add
 005415: 20 00                      |     local.get 0
 005417: 20 02                      |     local.get 2
 005419: 29 03 18                   |     i64.load 3 24
 00541c: 10 cf 80 80 80 00          |     call 79
 005422: 20 03                      |     local.get 3
 005424: 0d 00                      |     br_if 0
 005426: 20 02                      |     local.get 2
 005428: 28 02 08                   |     i32.load 2 8
 00542b: 45                         |     i32.eqz
 00542c: 0d 01                      |     br_if 1
 00542e: 0b                         |   end
 00542f: 20 02                      |   local.get 2
 005431: 41 20                      |   i32.const 32
 005433: 6a                         |   i32.add
 005434: 24 80 80 80 80 00          |   global.set 0
 00543a: 0f                         |   return
 00543b: 0b                         | end
 00543c: 42 83 80 80 80 a0 97 01    | i64.const 5196910428163
 005444: 10 de 80 80 80 00          | call 94
 00544a: 00                         | unreachable
 00544b: 0b                         | end
00544e func[159] <revoke_role>:
 00544f: 02 7f                      | local[3..4] type=i32
 005451: 23 80 80 80 80 00          | global.get 0
 005457: 41 30                      | i32.const 48
 005459: 6b                         | i32.sub
 00545a: 22 03                      | local.tee 3
 00545c: 24 80 80 80 80 00          | global.set 0
 005462: 02 40                      | block
 005464: 02 40                      |   block
 005466: 20 00                      |     local.get 0
 005468: 42 ff 01                   |     i64.const 255
 00546b: 83                         |     i64.and
 00546c: 42 cd 00                   |     i64.const 77
 00546f: 52                         |     i64.ne
 005470: 0d 00                      |     br_if 0
 005472: 20 01                      |     local.get 1
 005474: 42 ff 01                   |     i64.const 255
 005477: 83                         |     i64.and
 005478: 42 cd 00                   |     i64.const 77
 00547b: 52                         |     i64.ne
 00547c: 0d 00                      |     br_if 0
 00547e: 02 40                      |     block
 005480: 20 02                      |       local.get 2
 005482: a7                         |       i32.wrap_i64
 005483: 41 ff 01                   |       i32.const 255
 005486: 71                         |       i32.and
 005487: 22 04                      |       local.tee 4
 005489: 41 0e                      |       i32.const 14
 00548b: 46                         |       i32.eq
 00548c: 0d 00                      |       br_if 0
 00548e: 20 04                      |       local.get 4
 005490: 41 ca 00                   |       i32.const 74
 005493: 47                         |       i32.ne
 005494: 0d 01                      |       br_if 1
 005496: 0b                         |     end
 005497: 20 03                      |     local.get 3
 005499: 20 02                      |     local.get 2
 00549b: 37 03 10                   |     i64.store 3 16
 00549e: 20 03                      |     local.get 3
 0054a0: 20 01                      |     local.get 1
 0054a2: 37 03 08                   |     i64.store 3 8
 0054a5: 20 00                      |     local.get 0
 0054a7: 10 8a 80 80 80 00          |     call 10 <a.0>
 0054ad: 1a                         |     drop
 0054ae: 20 00                      |     local.get 0
 0054b0: 20 02                      |     local.get 2
 0054b2: 10 9e 81 80 80 00          |     call 158
 0054b8: 20 03                      |     local.get 3
 0054ba: 20 01                      |     local.get 1
 0054bc: 20 02                      |     local.get 2
 0054be: 10 cf 80 80 80 00          |     call 79
 0054c4: 20 03                      |     local.get 3
 0054c6: 28 02 00                   |     i32.load 2 0
 0054c9: 45                         |     i32.eqz
 0054ca: 0d 01                      |     br_if 1
 0054cc: 20 01                      |     local.get 1
 0054ce: 20 02                      |     local.get 2
 0054d0: 10 a0 81 80 80 00          |     call 160
 0054d6: 20 03                      |     local.get 3
 0054d8: 20 02                      |     local.get 2
 0054da: 37 03 28                   |     i64.store 3 40
 0054dd: 20 03                      |     local.get 3
 0054df: 20 01                      |     local.get 1
 0054e1: 37 03 20                   |     i64.store 3 32
 0054e4: 20 03                      |     local.get 3
 0054e6: 42 01                      |     i64.const 1
 0054e8: 37 03 18                   |     i64.store 3 24
 0054eb: 20 03                      |     local.get 3
 0054ed: 41 18                      |     i32.const 24
 0054ef: 6a                         |     i32.add
 0054f0: 10 dc 80 80 80 00          |     call 92
 0054f6: 42 01                      |     i64.const 1
 0054f8: 10 8b 80 80 80 00          |     call 11 <l.2>
 0054fe: 1a                         |     drop
 0054ff: 20 03                      |     local.get 3
 005501: 41 10                      |     i32.const 16
 005503: 6a                         |     i32.add
 005504: 20 03                      |     local.get 3
 005506: 41 08                      |     i32.const 8
 005508: 6a                         |     i32.add
 005509: 20 00                      |     local.get 0
 00550b: 10 a1 81 80 80 00          |     call 161
 005511: 20 03                      |     local.get 3
 005513: 41 30                      |     i32.const 48
 005515: 6a                         |     i32.add
 005516: 24 80 80 80 80 00          |     global.set 0
 00551c: 42 02                      |     i64.const 2
 00551e: 0f                         |     return
 00551f: 0b                         |   end
 005520: 00                         |   unreachable
 005521: 0b                         | end
 005522: 42 83 80 80 80 90 98 01    | i64.const 5226975199235
 00552a: 10 de 80 80 80 00          | call 94
 005530: 00                         | unreachable
 005531: 0b                         | end
005534 func[160]:
 005535: 03 7f                      | local[2..4] type=i32
 005537: 23 80 80 80 80 00          | global.get 0
 00553d: 41 90 01                   | i32.const 144
 005540: 6b                         | i32.sub
 005541: 22 02                      | local.tee 2
 005543: 24 80 80 80 80 00          | global.set 0
 005549: 20 02                      | local.get 2
 00554b: 42 02                      | i64.const 2
 00554d: 37 03 18                   | i64.store 3 24
 005550: 20 02                      | local.get 2
 005552: 20 01                      | local.get 1
 005554: 37 03 20                   | i64.store 3 32
 005557: 20 02                      | local.get 2
 005559: 41 10                      | i32.const 16
 00555b: 6a                         | i32.add
 00555c: 20 02                      | local.get 2
 00555e: 41 18                      | i32.const 24
 005560: 6a                         | i32.add
 005561: 10 95 81 80 80 00          | call 149
 005567: 02 40                      | block
 005569: 02 40                      |   block
 00556b: 02 40                      |     block
 00556d: 20 02                      |       local.get 2
 00556f: 28 02 10                   |       i32.load 2 16
 005572: 41 01                      |       i32.const 1
 005574: 71                         |       i32.and
 005575: 45                         |       i32.eqz
 005576: 0d 00                      |       br_if 0
 005578: 20 02                      |       local.get 2
 00557a: 28 02 14                   |       i32.load 2 20
 00557d: 22 03                      |       local.tee 3
 00557f: 45                         |       i32.eqz
 005580: 0d 00                      |       br_if 0
 005582: 20 02                      |       local.get 2
 005584: 20 01                      |       local.get 1
 005586: 37 03 40                   |       i64.store 3 64
 005589: 20 02                      |       local.get 2
 00558b: 20 00                      |       local.get 0
 00558d: 37 03 38                   |       i64.store 3 56
 005590: 20 02                      |       local.get 2
 005592: 42 01                      |       i64.const 1
 005594: 37 03 30                   |       i64.store 3 48
 005597: 20 02                      |       local.get 2
 005599: 41 08                      |       i32.const 8
 00559b: 6a                         |       i32.add
 00559c: 20 02                      |       local.get 2
 00559e: 41 30                      |       i32.const 48
 0055a0: 6a                         |       i32.add
 0055a1: 10 95 81 80 80 00          |       call 149
 0055a7: 20 02                      |       local.get 2
 0055a9: 28 02 08                   |       i32.load 2 8
 0055ac: 41 01                      |       i32.const 1
 0055ae: 71                         |       i32.and
 0055af: 45                         |       i32.eqz
 0055b0: 0d 01                      |       br_if 1
 0055b2: 20 02                      |       local.get 2
 0055b4: 28 02 0c                   |       i32.load 2 12
 0055b7: 21 04                      |       local.set 4
 0055b9: 20 02                      |       local.get 2
 0055bb: 20 01                      |       local.get 1
 0055bd: 37 03 50                   |       i64.store 3 80
 0055c0: 20 02                      |       local.get 2
 0055c2: 42 00                      |       i64.const 0
 0055c4: 37 03 48                   |       i64.store 3 72
 0055c7: 20 02                      |       local.get 2
 0055c9: 20 03                      |       local.get 3
 0055cb: 41 7f                      |       i32.const 4294967295
 0055cd: 6a                         |       i32.add
 0055ce: 22 03                      |       local.tee 3
 0055d0: 36 02 58                   |       i32.store 2 88
 0055d3: 02 40                      |       block
 0055d5: 20 04                      |         local.get 4
 0055d7: 20 03                      |         local.get 3
 0055d9: 46                         |         i32.eq
 0055da: 0d 00                      |         br_if 0
 0055dc: 20 02                      |         local.get 2
 0055de: 41 f8 00                   |         i32.const 120
 0055e1: 6a                         |         i32.add
 0055e2: 20 02                      |         local.get 2
 0055e4: 41 c8 00                   |         i32.const 72
 0055e7: 6a                         |         i32.add
 0055e8: 10 98 81 80 80 00          |         call 152
 0055ee: 20 02                      |         local.get 2
 0055f0: 28 02 78                   |         i32.load 2 120
 0055f3: 45                         |         i32.eqz
 0055f4: 0d 03                      |         br_if 3
 0055f6: 20 02                      |         local.get 2
 0055f8: 29 03 80 01                |         i64.load 3 128
 0055fc: 21 00                      |         local.set 0
 0055fe: 20 02                      |         local.get 2
 005600: 20 04                      |         local.get 4
 005602: 36 02 70                   |         i32.store 2 112
 005605: 20 02                      |         local.get 2
 005607: 20 01                      |         local.get 1
 005609: 37 03 68                   |         i64.store 3 104
 00560c: 20 02                      |         local.get 2
 00560e: 42 00                      |         i64.const 0
 005610: 37 03 60                   |         i64.store 3 96
 005613: 20 02                      |         local.get 2
 005615: 41 e0 00                   |         i32.const 96
 005618: 6a                         |         i32.add
 005619: 20 00                      |         local.get 0
 00561b: 10 b6 81 80 80 00          |         call 182
 005621: 20 02                      |         local.get 2
 005623: 20 01                      |         local.get 1
 005625: 37 03 88 01                |         i64.store 3 136
 005629: 20 02                      |         local.get 2
 00562b: 20 00                      |         local.get 0
 00562d: 37 03 80 01                |         i64.store 3 128
 005631: 20 02                      |         local.get 2
 005633: 42 01                      |         i64.const 1
 005635: 37 03 78                   |         i64.store 3 120
 005638: 20 02                      |         local.get 2
 00563a: 41 f8 00                   |         i32.const 120
 00563d: 6a                         |         i32.add
 00563e: 20 04                      |         local.get 4
 005640: 10 b5 81 80 80 00          |         call 181
 005646: 0b                         |       end
 005647: 20 02                      |       local.get 2
 005649: 41 c8 00                   |       i32.const 72
 00564c: 6a                         |       i32.add
 00564d: 10 dc 80 80 80 00          |       call 92
 005653: 42 01                      |       i64.const 1
 005655: 10 8b 80 80 80 00          |       call 11 <l.2>
 00565b: 1a                         |       drop
 00565c: 20 02                      |       local.get 2
 00565e: 41 30                      |       i32.const 48
 005660: 6a                         |       i32.add
 005661: 10 dc 80 80 80 00          |       call 92
 005667: 42 01                      |       i64.const 1
 005669: 10 8b 80 80 80 00          |       call 11 <l.2>
 00566f: 1a                         |       drop
 005670: 20 02                      |       local.get 2
 005672: 41 18                      |       i32.const 24
 005674: 6a                         |       i32.add
 005675: 20 03                      |       local.get 3
 005677: 10 b5 81 80 80 00          |       call 181
 00567d: 20 02                      |       local.get 2
 00567f: 41 90 01                   |       i32.const 144
 005682: 6a                         |       i32.add
 005683: 24 80 80 80 80 00          |       global.set 0
 005689: 0f                         |       return
 00568a: 0b                         |     end
 00568b: 42 83 80 80 80 a0 98 01    |     i64.const 5231270166531
 005693: 10 de 80 80 80 00          |     call 94
 005699: 00                         |     unreachable
 00569a: 0b                         |   end
 00569b: 10 b8 81 80 80 00          |   call 184
 0056a1: 00                         |   unreachable
 0056a2: 0b                         | end
 0056a3: 10 c1 80 80 80 00          | call 65
 0056a9: 00                         | unreachable
 0056aa: 0b                         | end
0056ac func[161]:
 0056ad: 01 7f                      | local[3] type=i32
 0056af: 01 7e                      | local[4] type=i64
 0056b1: 23 80 80 80 80 00          | global.get 0
 0056b7: 41 10                      | i32.const 16
 0056b9: 6b                         | i32.sub
 0056ba: 22 03                      | local.tee 3
 0056bc: 24 80 80 80 80 00          | global.set 0
 0056c2: 41 cc 86 c0 80 00          | i32.const 1049420
 0056c8: 41 0c                      | i32.const 12
 0056ca: 10 cd 80 80 80 00          | call 77
 0056d0: 21 04                      | local.set 4
 0056d2: 20 03                      | local.get 3
 0056d4: 20 01                      | local.get 1
 0056d6: 36 02 0c                   | i32.store 2 12
 0056d9: 20 03                      | local.get 3
 0056db: 20 00                      | local.get 0
 0056dd: 36 02 08                   | i32.store 2 8
 0056e0: 20 03                      | local.get 3
 0056e2: 20 04                      | local.get 4
 0056e4: 37 03 00                   | i64.store 3 0
 0056e7: 20 03                      | local.get 3
 0056e9: 10 b7 81 80 80 00          | call 183
 0056ef: 20 02                      | local.get 2
 0056f1: 10 8c 80 80 80 00          | call 12 <x.1>
 0056f7: 1a                         | drop
 0056f8: 20 03                      | local.get 3
 0056fa: 41 10                      | i32.const 16
 0056fc: 6a                         | i32.add
 0056fd: 24 80 80 80 80 00          | global.set 0
 005703: 0b                         | end
005706 func[162] <renounce_role>:
 005707: 02 7f                      | local[2..3] type=i32
 005709: 23 80 80 80 80 00          | global.get 0
 00570f: 41 30                      | i32.const 48
 005711: 6b                         | i32.sub
 005712: 22 02                      | local.tee 2
 005714: 24 80 80 80 80 00          | global.set 0
 00571a: 02 40                      | block
 00571c: 02 40                      |   block
 00571e: 20 00                      |     local.get 0
 005720: 42 ff 01                   |     i64.const 255
 005723: 83                         |     i64.and
 005724: 42 cd 00                   |     i64.const 77
 005727: 52                         |     i64.ne
 005728: 0d 00                      |     br_if 0
 00572a: 02 40                      |     block
 00572c: 20 01                      |       local.get 1
 00572e: a7                         |       i32.wrap_i64
 00572f: 41 ff 01                   |       i32.const 255
 005732: 71                         |       i32.and
 005733: 22 03                      |       local.tee 3
 005735: 41 0e                      |       i32.const 14
 005737: 46                         |       i32.eq
 005738: 0d 00                      |       br_if 0
 00573a: 20 03                      |       local.get 3
 00573c: 41 ca 00                   |       i32.const 74
 00573f: 47                         |       i32.ne
 005740: 0d 01                      |       br_if 1
 005742: 0b                         |     end
 005743: 20 02                      |     local.get 2
 005745: 20 01                      |     local.get 1
 005747: 37 03 10                   |     i64.store 3 16
 00574a: 20 02                      |     local.get 2
 00574c: 20 00                      |     local.get 0
 00574e: 37 03 08                   |     i64.store 3 8
 005751: 20 00                      |     local.get 0
 005753: 10 8a 80 80 80 00          |     call 10 <a.0>
 005759: 1a                         |     drop
 00575a: 20 02                      |     local.get 2
 00575c: 20 00                      |     local.get 0
 00575e: 20 01                      |     local.get 1
 005760: 10 cf 80 80 80 00          |     call 79
 005766: 20 02                      |     local.get 2
 005768: 28 02 00                   |     i32.load 2 0
 00576b: 45                         |     i32.eqz
 00576c: 0d 01                      |     br_if 1
 00576e: 20 00                      |     local.get 0
 005770: 20 01                      |     local.get 1
 005772: 10 a0 81 80 80 00          |     call 160
 005778: 20 02                      |     local.get 2
 00577a: 20 01                      |     local.get 1
 00577c: 37 03 28                   |     i64.store 3 40
 00577f: 20 02                      |     local.get 2
 005781: 20 00                      |     local.get 0
 005783: 37 03 20                   |     i64.store 3 32
 005786: 20 02                      |     local.get 2
 005788: 42 01                      |     i64.const 1
 00578a: 37 03 18                   |     i64.store 3 24
 00578d: 20 02                      |     local.get 2
 00578f: 41 18                      |     i32.const 24
 005791: 6a                         |     i32.add
 005792: 10 dc 80 80 80 00          |     call 92
 005798: 42 01                      |     i64.const 1
 00579a: 10 8b 80 80 80 00          |     call 11 <l.2>
 0057a0: 1a                         |     drop
 0057a1: 20 02                      |     local.get 2
 0057a3: 41 10                      |     i32.const 16
 0057a5: 6a                         |     i32.add
 0057a6: 20 02                      |     local.get 2
 0057a8: 41 08                      |     i32.const 8
 0057aa: 6a                         |     i32.add
 0057ab: 20 00                      |     local.get 0
 0057ad: 10 a1 81 80 80 00          |     call 161
 0057b3: 20 02                      |     local.get 2
 0057b5: 41 30                      |     i32.const 48
 0057b7: 6a                         |     i32.add
 0057b8: 24 80 80 80 80 00          |     global.set 0
 0057be: 42 02                      |     i64.const 2
 0057c0: 0f                         |     return
 0057c1: 0b                         |   end
 0057c2: 00                         |   unreachable
 0057c3: 0b                         | end
 0057c4: 42 83 80 80 80 90 98 01    | i64.const 5226975199235
 0057cc: 10 de 80 80 80 00          | call 94
 0057d2: 00                         | unreachable
 0057d3: 0b                         | end
0057d5 func[163] <renounce_admin>:
 0057d6: 01 7e                      | local[0] type=i64
 0057d8: 10 a4 81 80 80 00          | call 164
 0057de: 21 00                      | local.set 0
 0057e0: 41 90 86 c0 80 00          | i32.const 1049360
 0057e6: 10 dc 80 80 80 00          | call 92
 0057ec: 42 02                      | i64.const 2
 0057ee: 10 8b 80 80 80 00          | call 11 <l.2>
 0057f4: 1a                         | drop
 0057f5: 41 9a 87 c0 80 00          | i32.const 1049498
 0057fb: 41 0f                      | i32.const 15
 0057fd: 10 cd 80 80 80 00          | call 77
 005803: 20 00                      | local.get 0
 005805: 10 a5 81 80 80 00          | call 165
 00580b: 42 02                      | i64.const 2
 00580d: 10 8c 80 80 80 00          | call 12 <x.1>
 005813: 1a                         | drop
 005814: 42 02                      | i64.const 2
 005816: 0b                         | end
005818 func[164]:
 005819: 01 7f                      | local[0] type=i32
 00581b: 01 7e                      | local[1] type=i64
 00581d: 23 80 80 80 80 00          | global.get 0
 005823: 41 10                      | i32.const 16
 005825: 6b                         | i32.sub
 005826: 22 00                      | local.tee 0
 005828: 24 80 80 80 80 00          | global.set 0
 00582e: 20 00                      | local.get 0
 005830: 10 9c 81 80 80 00          | call 156
 005836: 02 40                      | block
 005838: 20 00                      |   local.get 0
 00583a: 28 02 00                   |   i32.load 2 0
 00583d: 41 01                      |   i32.const 1
 00583f: 47                         |   i32.ne
 005840: 0d 00                      |   br_if 0
 005842: 20 00                      |   local.get 0
 005844: 29 03 08                   |   i64.load 3 8
 005847: 22 01                      |   local.tee 1
 005849: 10 8a 80 80 80 00          |   call 10 <a.0>
 00584f: 1a                         |   drop
 005850: 20 00                      |   local.get 0
 005852: 41 10                      |   i32.const 16
 005854: 6a                         |   i32.add
 005855: 24 80 80 80 80 00          |   global.set 0
 00585b: 20 01                      |   local.get 1
 00585d: 0f                         |   return
 00585e: 0b                         | end
 00585f: 42 83 80 80 80 b0 97 01    | i64.const 5201205395459
 005867: 10 de 80 80 80 00          | call 94
 00586d: 00                         | unreachable
 00586e: 0b                         | end
005871 func[165]:
 005872: 02 7f                      | local[2..3] type=i32
 005874: 23 80 80 80 80 00          | global.get 0
 00587a: 41 20                      | i32.const 32
 00587c: 6b                         | i32.sub
 00587d: 22 02                      | local.tee 2
 00587f: 24 80 80 80 80 00          | global.set 0
 005885: 20 02                      | local.get 2
 005887: 20 01                      | local.get 1
 005889: 37 03 08                   | i64.store 3 8
 00588c: 20 02                      | local.get 2
 00588e: 20 00                      | local.get 0
 005890: 37 03 00                   | i64.store 3 0
 005893: 41 00                      | i32.const 0
 005895: 21 03                      | local.set 3
 005897: 03 7e                      | loop i64
 005899: 02 40                      |   block
 00589b: 20 03                      |     local.get 3
 00589d: 41 10                      |     i32.const 16
 00589f: 47                         |     i32.ne
 0058a0: 0d 00                      |     br_if 0
 0058a2: 41 00                      |     i32.const 0
 0058a4: 21 03                      |     local.set 3
 0058a6: 02 40                      |     block
 0058a8: 03 40                      |       loop
 0058aa: 20 03                      |         local.get 3
 0058ac: 41 10                      |         i32.const 16
 0058ae: 46                         |         i32.eq
 0058af: 0d 01                      |         br_if 1
 0058b1: 20 02                      |         local.get 2
 0058b3: 41 10                      |         i32.const 16
 0058b5: 6a                         |         i32.add
 0058b6: 20 03                      |         local.get 3
 0058b8: 6a                         |         i32.add
 0058b9: 20 02                      |         local.get 2
 0058bb: 20 03                      |         local.get 3
 0058bd: 6a                         |         i32.add
 0058be: 29 03 00                   |         i64.load 3 0
 0058c1: 37 03 00                   |         i64.store 3 0
 0058c4: 20 03                      |         local.get 3
 0058c6: 41 08                      |         i32.const 8
 0058c8: 6a                         |         i32.add
 0058c9: 21 03                      |         local.set 3
 0058cb: 0c 00                      |         br 0
 0058cd: 0b                         |       end
 0058ce: 0b                         |     end
 0058cf: 20 02                      |     local.get 2
 0058d1: 41 10                      |     i32.const 16
 0058d3: 6a                         |     i32.add
 0058d4: 41 02                      |     i32.const 2
 0058d6: 10 b0 80 80 80 00          |     call 48
 0058dc: 21 01                      |     local.set 1
 0058de: 20 02                      |     local.get 2
 0058e0: 41 20                      |     i32.const 32
 0058e2: 6a                         |     i32.add
 0058e3: 24 80 80 80 80 00          |     global.set 0
 0058e9: 20 01                      |     local.get 1
 0058eb: 0f                         |     return
 0058ec: 0b                         |   end
 0058ed: 20 02                      |   local.get 2
 0058ef: 41 10                      |   i32.const 16
 0058f1: 6a                         |   i32.add
 0058f2: 20 03                      |   local.get 3
 0058f4: 6a                         |   i32.add
 0058f5: 42 02                      |   i64.const 2
 0058f7: 37 03 00                   |   i64.store 3 0
 0058fa: 20 03                      |   local.get 3
 0058fc: 41 08                      |   i32.const 8
 0058fe: 6a                         |   i32.add
 0058ff: 21 03                      |   local.set 3
 005901: 0c 00                      |   br 0
 005903: 0b                         | end
 005904: 0b                         | end
005907 func[166] <transfer_admin_role>:
 005908: 01 7f                      | local[2] type=i32
 00590a: 04 7e                      | local[3..6] type=i64
 00590c: 01 7f                      | local[7] type=i32
 00590e: 23 80 80 80 80 00          | global.get 0
 005914: 41 10                      | i32.const 16
 005916: 6b                         | i32.sub
 005917: 22 02                      | local.tee 2
 005919: 24 80 80 80 80 00          | global.set 0
 00591f: 02 40                      | block
 005921: 20 00                      |   local.get 0
 005923: 42 ff 01                   |   i64.const 255
 005926: 83                         |   i64.and
 005927: 42 cd 00                   |   i64.const 77
 00592a: 52                         |   i64.ne
 00592b: 0d 00                      |   br_if 0
 00592d: 20 01                      |   local.get 1
 00592f: 42 ff 01                   |   i64.const 255
 005932: 83                         |   i64.and
 005933: 42 04                      |   i64.const 4
 005935: 52                         |   i64.ne
 005936: 0d 00                      |   br_if 0
 005938: 10 a4 81 80 80 00          |   call 164
 00593e: 21 03                      |   local.set 3
 005940: 02 40                      |   block
 005942: 02 40                      |     block
 005944: 02 40                      |       block
 005946: 02 40                      |         block
 005948: 02 40                      |           block
 00594a: 20 01                      |             local.get 1
 00594c: 42 ff ff ff ff 0f          |             i64.const 4294967295
 005952: 56                         |             i64.gt_u
 005953: 0d 00                      |             br_if 0
 005955: 20 02                      |             local.get 2
 005957: 10 a7 81 80 80 00          |             call 167
 00595d: 20 02                      |             local.get 2
 00595f: 28 02 00                   |             i32.load 2 0
 005962: 45                         |             i32.eqz
 005963: 0d 02                      |             br_if 2
 005965: 20 02                      |             local.get 2
 005967: 29 03 08                   |             i64.load 3 8
 00596a: 20 00                      |             local.get 0
 00596c: 10 a8 81 80 80 00          |             call 168
 005972: 45                         |             i32.eqz
 005973: 0d 03                      |             br_if 3
 005975: 41 a8 86 c0 80 00          |             i32.const 1049384
 00597b: 10 dc 80 80 80 00          |             call 92
 005981: 42 00                      |             i64.const 0
 005983: 10 8b 80 80 80 00          |             call 11 <l.2>
 005989: 1a                         |             drop
 00598a: 0c 01                      |             br 1
 00598c: 0b                         |           end
 00598d: 10 8d 80 80 80 00          |           call 13 <x.3>
 005993: 21 04                      |           local.set 4
 005995: 10 8e 80 80 80 00          |           call 14 <x.8>
 00599b: 21 05                      |           local.set 5
 00599d: 20 01                      |           local.get 1
 00599f: 42 20                      |           i64.const 32
 0059a1: 88                         |           i64.shr_u
 0059a2: 22 06                      |           local.tee 6
 0059a4: 20 04                      |           local.get 4
 0059a6: 42 20                      |           i64.const 32
 0059a8: 88                         |           i64.shr_u
 0059a9: 22 04                      |           local.tee 4
 0059ab: 54                         |           i64.lt_u
 0059ac: 0d 03                      |           br_if 3
 0059ae: 20 06                      |           local.get 6
 0059b0: 20 05                      |           local.get 5
 0059b2: 42 20                      |           i64.const 32
 0059b4: 88                         |           i64.shr_u
 0059b5: 56                         |           i64.gt_u
 0059b6: 0d 03                      |           br_if 3
 0059b8: 41 a8 86 c0 80 00          |           i32.const 1049384
 0059be: 20 00                      |           local.get 0
 0059c0: 42 00                      |           i64.const 0
 0059c2: 10 a9 81 80 80 00          |           call 169
 0059c8: 41 a8 86 c0 80 00          |           i32.const 1049384
 0059ce: 42 00                      |           i64.const 0
 0059d0: 20 06                      |           local.get 6
 0059d2: a7                         |           i32.wrap_i64
 0059d3: 20 04                      |           local.get 4
 0059d5: a7                         |           i32.wrap_i64
 0059d6: 6b                         |           i32.sub
 0059d7: 22 07                      |           local.tee 7
 0059d9: 20 07                      |           local.get 7
 0059db: 10 aa 81 80 80 00          |           call 170
 0059e1: 0b                         |         end
 0059e2: 41 ea 86 c0 80 00          |         i32.const 1049450
 0059e8: 41 18                      |         i32.const 24
 0059ea: 10 cd 80 80 80 00          |         call 77
 0059f0: 20 03                      |         local.get 3
 0059f2: 10 a5 81 80 80 00          |         call 165
 0059f8: 21 03                      |         local.set 3
 0059fa: 20 02                      |         local.get 2
 0059fc: 20 01                      |         local.get 1
 0059fe: 42 84 80 80 80 70          |         i64.const 18446744069414584324
 005a04: 83                         |         i64.and
 005a05: 37 03 08                   |         i64.store 3 8
 005a08: 20 02                      |         local.get 2
 005a0a: 20 00                      |         local.get 0
 005a0c: 37 03 00                   |         i64.store 3 0
 005a0f: 20 03                      |         local.get 3
 005a11: 20 02                      |         local.get 2
 005a13: 41 02                      |         i32.const 2
 005a15: 10 b0 80 80 80 00          |         call 48
 005a1b: 10 8c 80 80 80 00          |         call 12 <x.1>
 005a21: 1a                         |         drop
 005a22: 20 02                      |         local.get 2
 005a24: 41 10                      |         i32.const 16
 005a26: 6a                         |         i32.add
 005a27: 24 80 80 80 80 00          |         global.set 0
 005a2d: 42 02                      |         i64.const 2
 005a2f: 0f                         |         return
 005a30: 0b                         |       end
 005a31: 42 83 80 80 80 80 96 01    |       i64.const 5153960755203
 005a39: 10 de 80 80 80 00          |       call 94
 005a3f: 00                         |       unreachable
 005a40: 0b                         |     end
 005a41: 42 83 80 80 80 a0 96 01    |     i64.const 5162550689795
 005a49: 10 de 80 80 80 00          |     call 94
 005a4f: 00                         |     unreachable
 005a50: 0b                         |   end
 005a51: 42 83 80 80 80 90 96 01    |   i64.const 5158255722499
 005a59: 10 de 80 80 80 00          |   call 94
 005a5f: 0b                         | end
 005a60: 00                         | unreachable
 005a61: 0b                         | end
005a63 func[167]:
 005a64: 02 7e                      | local[1..2] type=i64
 005a66: 42 00                      | i64.const 0
 005a68: 21 01                      | local.set 1
 005a6a: 02 40                      | block
 005a6c: 02 40                      |   block
 005a6e: 41 a8 86 c0 80 00          |     i32.const 1049384
 005a74: 10 dc 80 80 80 00          |     call 92
 005a7a: 22 02                      |     local.tee 2
 005a7c: 42 00                      |     i64.const 0
 005a7e: 10 9d 80 80 80 00          |     call 29
 005a84: 45                         |     i32.eqz
 005a85: 0d 00                      |     br_if 0
 005a87: 20 02                      |     local.get 2
 005a89: 42 00                      |     i64.const 0
 005a8b: 10 82 80 80 80 00          |     call 2 <l.1>
 005a91: 22 01                      |     local.tee 1
 005a93: 42 ff 01                   |     i64.const 255
 005a96: 83                         |     i64.and
 005a97: 42 cd 00                   |     i64.const 77
 005a9a: 52                         |     i64.ne
 005a9b: 0d 01                      |     br_if 1
 005a9d: 20 00                      |     local.get 0
 005a9f: 20 01                      |     local.get 1
 005aa1: 37 03 08                   |     i64.store 3 8
 005aa4: 42 01                      |     i64.const 1
 005aa6: 21 01                      |     local.set 1
 005aa8: 0b                         |   end
 005aa9: 20 00                      |   local.get 0
 005aab: 20 01                      |   local.get 1
 005aad: 37 03 00                   |   i64.store 3 0
 005ab0: 0f                         |   return
 005ab1: 0b                         | end
 005ab2: 00                         | unreachable
 005ab3: 0b                         | end
005ab5 func[168]:
 005ab6: 20 00                      | local.get 0
 005ab8: 20 01                      | local.get 1
 005aba: 10 95 80 80 80 00          | call 21 <x.0>
 005ac0: 50                         | i64.eqz
 005ac1: 0b                         | end
005ac3 func[169]:
 005ac4: 20 00                      | local.get 0
 005ac6: 10 dc 80 80 80 00          | call 92
 005acc: 20 01                      | local.get 1
 005ace: 20 02                      | local.get 2
 005ad0: 10 83 80 80 80 00          | call 3 <l._>
 005ad6: 1a                         | drop
 005ad7: 0b                         | end
005ad9 func[170]:
 005ada: 20 00                      | local.get 0
 005adc: 10 dc 80 80 80 00          | call 92
 005ae2: 20 01                      | local.get 1
 005ae4: 20 02                      | local.get 2
 005ae6: ad                         | i64.extend_i32_u
 005ae7: 42 20                      | i64.const 32
 005ae9: 86                         | i64.shl
 005aea: 42 04                      | i64.const 4
 005aec: 84                         | i64.or
 005aed: 20 03                      | local.get 3
 005aef: ad                         | i64.extend_i32_u
 005af0: 42 20                      | i64.const 32
 005af2: 86                         | i64.shl
 005af3: 42 04                      | i64.const 4
 005af5: 84                         | i64.or
 005af6: 10 98 80 80 80 00          | call 24 <l.7>
 005afc: 1a                         | drop
 005afd: 0b                         | end
005b00 func[171] <accept_admin_transfer>:
 005b01: 01 7f                      | local[0] type=i32
 005b03: 02 7e                      | local[1..2] type=i64
 005b05: 23 80 80 80 80 00          | global.get 0
 005b0b: 41 10                      | i32.const 16
 005b0d: 6b                         | i32.sub
 005b0e: 22 00                      | local.tee 0
 005b10: 24 80 80 80 80 00          | global.set 0
 005b16: 20 00                      | local.get 0
 005b18: 10 9c 81 80 80 00          | call 156
 005b1e: 02 40                      | block
 005b20: 02 40                      |   block
 005b22: 20 00                      |     local.get 0
 005b24: 28 02 00                   |     i32.load 2 0
 005b27: 41 01                      |     i32.const 1
 005b29: 47                         |     i32.ne
 005b2a: 0d 00                      |     br_if 0
 005b2c: 20 00                      |     local.get 0
 005b2e: 29 03 08                   |     i64.load 3 8
 005b31: 21 01                      |     local.set 1
 005b33: 20 00                      |     local.get 0
 005b35: 10 a7 81 80 80 00          |     call 167
 005b3b: 20 00                      |     local.get 0
 005b3d: 28 02 00                   |     i32.load 2 0
 005b40: 0d 01                      |     br_if 1
 005b42: 10 ac 81 80 80 00          |     call 172
 005b48: 00                         |     unreachable
 005b49: 0b                         |   end
 005b4a: 42 83 80 80 80 b0 97 01    |   i64.const 5201205395459
 005b52: 10 de 80 80 80 00          |   call 94
 005b58: 00                         |   unreachable
 005b59: 0b                         | end
 005b5a: 20 00                      | local.get 0
 005b5c: 29 03 08                   | i64.load 3 8
 005b5f: 22 02                      | local.tee 2
 005b61: 10 8a 80 80 80 00          | call 10 <a.0>
 005b67: 1a                         | drop
 005b68: 41 a8 86 c0 80 00          | i32.const 1049384
 005b6e: 10 dc 80 80 80 00          | call 92
 005b74: 42 00                      | i64.const 0
 005b76: 10 8b 80 80 80 00          | call 11 <l.2>
 005b7c: 1a                         | drop
 005b7d: 41 90 86 c0 80 00          | i32.const 1049360
 005b83: 20 02                      | local.get 2
 005b85: 42 02                      | i64.const 2
 005b87: 10 a9 81 80 80 00          | call 169
 005b8d: 41 82 87 c0 80 00          | i32.const 1049474
 005b93: 41 18                      | i32.const 24
 005b95: 10 cd 80 80 80 00          | call 77
 005b9b: 20 02                      | local.get 2
 005b9d: 10 a5 81 80 80 00          | call 165
 005ba3: 20 01                      | local.get 1
 005ba5: 10 8c 80 80 80 00          | call 12 <x.1>
 005bab: 1a                         | drop
 005bac: 20 00                      | local.get 0
 005bae: 41 10                      | i32.const 16
 005bb0: 6a                         | i32.add
 005bb1: 24 80 80 80 80 00          | global.set 0
 005bb7: 42 02                      | i64.const 2
 005bb9: 0b                         | end
005bbb func[172]:
 005bbc: 42 83 80 80 80 80 96 01    | i64.const 5153960755203
 005bc4: 10 de 80 80 80 00          | call 94
 005bca: 00                         | unreachable
 005bcb: 0b                         | end
005bce func[173] <set_role_admin>:
 005bcf: 02 7f                      | local[2..3] type=i32
 005bd1: 02 7e                      | local[4..5] type=i64
 005bd3: 23 80 80 80 80 00          | global.get 0
 005bd9: 41 c0 00                   | i32.const 64
 005bdc: 6b                         | i32.sub
 005bdd: 22 02                      | local.tee 2
 005bdf: 24 80 80 80 80 00          | global.set 0
 005be5: 02 40                      | block
 005be7: 02 40                      |   block
 005be9: 02 40                      |     block
 005beb: 20 00                      |       local.get 0
 005bed: a7                         |       i32.wrap_i64
 005bee: 41 ff 01                   |       i32.const 255
 005bf1: 71                         |       i32.and
 005bf2: 22 03                      |       local.tee 3
 005bf4: 41 0e                      |       i32.const 14
 005bf6: 46                         |       i32.eq
 005bf7: 0d 00                      |       br_if 0
 005bf9: 20 03                      |       local.get 3
 005bfb: 41 ca 00                   |       i32.const 74
 005bfe: 47                         |       i32.ne
 005bff: 0d 01                      |       br_if 1
 005c01: 0b                         |     end
 005c02: 02 40                      |     block
 005c04: 20 01                      |       local.get 1
 005c06: a7                         |       i32.wrap_i64
 005c07: 41 ff 01                   |       i32.const 255
 005c0a: 71                         |       i32.and
 005c0b: 22 03                      |       local.tee 3
 005c0d: 41 0e                      |       i32.const 14
 005c0f: 46                         |       i32.eq
 005c10: 0d 00                      |       br_if 0
 005c12: 20 03                      |       local.get 3
 005c14: 41 ca 00                   |       i32.const 74
 005c17: 47                         |       i32.ne
 005c18: 0d 01                      |       br_if 1
 005c1a: 0b                         |     end
 005c1b: 20 02                      |     local.get 2
 005c1d: 41 08                      |     i32.const 8
 005c1f: 6a                         |     i32.add
 005c20: 10 9c 81 80 80 00          |     call 156
 005c26: 20 02                      |     local.get 2
 005c28: 28 02 08                   |     i32.load 2 8
 005c2b: 41 01                      |     i32.const 1
 005c2d: 47                         |     i32.ne
 005c2e: 0d 01                      |     br_if 1
 005c30: 20 02                      |     local.get 2
 005c32: 29 03 10                   |     i64.load 3 16
 005c35: 10 8a 80 80 80 00          |     call 10 <a.0>
 005c3b: 1a                         |     drop
 005c3c: 20 02                      |     local.get 2
 005c3e: 42 03                      |     i64.const 3
 005c40: 37 03 08                   |     i64.store 3 8
 005c43: 20 02                      |     local.get 2
 005c45: 20 00                      |     local.get 0
 005c47: 37 03 10                   |     i64.store 3 16
 005c4a: 20 02                      |     local.get 2
 005c4c: 41 30                      |     i32.const 48
 005c4e: 6a                         |     i32.add
 005c4f: 20 02                      |     local.get 2
 005c51: 41 08                      |     i32.const 8
 005c53: 6a                         |     i32.add
 005c54: 10 ae 81 80 80 00          |     call 174
 005c5a: 02 40                      |     block
 005c5c: 02 40                      |       block
 005c5e: 20 02                      |         local.get 2
 005c60: 28 02 30                   |         i32.load 2 48
 005c63: 45                         |         i32.eqz
 005c64: 0d 00                      |         br_if 0
 005c66: 20 02                      |         local.get 2
 005c68: 29 03 38                   |         i64.load 3 56
 005c6b: 21 04                      |         local.set 4
 005c6d: 0c 01                      |         br 1
 005c6f: 0b                         |       end
 005c70: 41 01                      |       i32.const 1
 005c72: 41 00                      |       i32.const 0
 005c74: 10 cd 80 80 80 00          |       call 77
 005c7a: 21 04                      |       local.set 4
 005c7c: 0b                         |     end
 005c7d: 20 02                      |     local.get 2
 005c7f: 41 08                      |     i32.const 8
 005c81: 6a                         |     i32.add
 005c82: 10 dc 80 80 80 00          |     call 92
 005c88: 20 01                      |     local.get 1
 005c8a: 42 01                      |     i64.const 1
 005c8c: 10 83 80 80 80 00          |     call 3 <l._>
 005c92: 1a                         |     drop
 005c93: 41 d8 86 c0 80 00          |     i32.const 1049432
 005c99: 41 12                      |     i32.const 18
 005c9b: 10 cd 80 80 80 00          |     call 77
 005ca1: 21 05                      |     local.set 5
 005ca3: 20 02                      |     local.get 2
 005ca5: 20 00                      |     local.get 0
 005ca7: 37 03 28                   |     i64.store 3 40
 005caa: 20 02                      |     local.get 2
 005cac: 20 05                      |     local.get 5
 005cae: 37 03 20                   |     i64.store 3 32
 005cb1: 41 00                      |     i32.const 0
 005cb3: 21 03                      |     local.set 3
 005cb5: 03 40                      |     loop
 005cb7: 02 40                      |       block
 005cb9: 20 03                      |         local.get 3
 005cbb: 41 10                      |         i32.const 16
 005cbd: 47                         |         i32.ne
 005cbe: 0d 00                      |         br_if 0
 005cc0: 41 00                      |         i32.const 0
 005cc2: 21 03                      |         local.set 3
 005cc4: 02 40                      |         block
 005cc6: 03 40                      |           loop
 005cc8: 20 03                      |             local.get 3
 005cca: 41 10                      |             i32.const 16
 005ccc: 46                         |             i32.eq
 005ccd: 0d 01                      |             br_if 1
 005ccf: 20 02                      |             local.get 2
 005cd1: 41 30                      |             i32.const 48
 005cd3: 6a                         |             i32.add
 005cd4: 20 03                      |             local.get 3
 005cd6: 6a                         |             i32.add
 005cd7: 20 02                      |             local.get 2
 005cd9: 41 20                      |             i32.const 32
 005cdb: 6a                         |             i32.add
 005cdc: 20 03                      |             local.get 3
 005cde: 6a                         |             i32.add
 005cdf: 29 03 00                   |             i64.load 3 0
 005ce2: 37 03 00                   |             i64.store 3 0
 005ce5: 20 03                      |             local.get 3
 005ce7: 41 08                      |             i32.const 8
 005ce9: 6a                         |             i32.add
 005cea: 21 03                      |             local.set 3
 005cec: 0c 00                      |             br 0
 005cee: 0b                         |           end
 005cef: 0b                         |         end
 005cf0: 20 02                      |         local.get 2
 005cf2: 41 30                      |         i32.const 48
 005cf4: 6a                         |         i32.add
 005cf5: 41 02                      |         i32.const 2
 005cf7: 10 b0 80 80 80 00          |         call 48
 005cfd: 21 00                      |         local.set 0
 005cff: 20 02                      |         local.get 2
 005d01: 20 01                      |         local.get 1
 005d03: 37 03 38                   |         i64.store 3 56
 005d06: 20 02                      |         local.get 2
 005d08: 20 04                      |         local.get 4
 005d0a: 37 03 30                   |         i64.store 3 48
 005d0d: 20 00                      |         local.get 0
 005d0f: 20 02                      |         local.get 2
 005d11: 41 30                      |         i32.const 48
 005d13: 6a                         |         i32.add
 005d14: 41 02                      |         i32.const 2
 005d16: 10 b0 80 80 80 00          |         call 48
 005d1c: 10 8c 80 80 80 00          |         call 12 <x.1>
 005d22: 1a                         |         drop
 005d23: 20 02                      |         local.get 2
 005d25: 41 c0 00                   |         i32.const 64
 005d28: 6a                         |         i32.add
 005d29: 24 80 80 80 80 00          |         global.set 0
 005d2f: 42 02                      |         i64.const 2
 005d31: 0f                         |         return
 005d32: 0b                         |       end
 005d33: 20 02                      |       local.get 2
 005d35: 41 30                      |       i32.const 48
 005d37: 6a                         |       i32.add
 005d38: 20 03                      |       local.get 3
 005d3a: 6a                         |       i32.add
 005d3b: 42 02                      |       i64.const 2
 005d3d: 37 03 00                   |       i64.store 3 0
 005d40: 20 03                      |       local.get 3
 005d42: 41 08                      |       i32.const 8
 005d44: 6a                         |       i32.add
 005d45: 21 03                      |       local.set 3
 005d47: 0c 00                      |       br 0
 005d49: 0b                         |     end
 005d4a: 0b                         |   end
 005d4b: 00                         |   unreachable
 005d4c: 0b                         | end
 005d4d: 42 83 80 80 80 b0 97 01    | i64.const 5201205395459
 005d55: 10 de 80 80 80 00          | call 94
 005d5b: 00                         | unreachable
 005d5c: 0b                         | end
005d5e func[174]:
 005d5f: 02 7e                      | local[2..3] type=i64
 005d61: 42 00                      | i64.const 0
 005d63: 21 02                      | local.set 2
 005d65: 02 40                      | block
 005d67: 02 40                      |   block
 005d69: 20 01                      |     local.get 1
 005d6b: 10 dc 80 80 80 00          |     call 92
 005d71: 22 03                      |     local.tee 3
 005d73: 42 01                      |     i64.const 1
 005d75: 10 9d 80 80 80 00          |     call 29
 005d7b: 45                         |     i32.eqz
 005d7c: 0d 00                      |     br_if 0
 005d7e: 02 40                      |     block
 005d80: 20 03                      |       local.get 3
 005d82: 42 01                      |       i64.const 1
 005d84: 10 82 80 80 80 00          |       call 2 <l.1>
 005d8a: 22 02                      |       local.tee 2
 005d8c: a7                         |       i32.wrap_i64
 005d8d: 41 ff 01                   |       i32.const 255
 005d90: 71                         |       i32.and
 005d91: 22 01                      |       local.tee 1
 005d93: 41 0e                      |       i32.const 14
 005d95: 46                         |       i32.eq
 005d96: 0d 00                      |       br_if 0
 005d98: 20 01                      |       local.get 1
 005d9a: 41 ca 00                   |       i32.const 74
 005d9d: 47                         |       i32.ne
 005d9e: 0d 02                      |       br_if 2
 005da0: 0b                         |     end
 005da1: 20 00                      |     local.get 0
 005da3: 20 02                      |     local.get 2
 005da5: 37 03 08                   |     i64.store 3 8
 005da8: 42 01                      |     i64.const 1
 005daa: 21 02                      |     local.set 2
 005dac: 0b                         |   end
 005dad: 20 00                      |   local.get 0
 005daf: 20 02                      |   local.get 2
 005db1: 37 03 00                   |   i64.store 3 0
 005db4: 0f                         |   return
 005db5: 0b                         | end
 005db6: 00                         | unreachable
 005db7: 0b                         | end
005db9 func[175]:
 005dba: 00                         | unreachable
 005dbb: 0b                         | end
005dbe func[176]:
 005dbf: 01 7e                      | local[3] type=i64
 005dc1: 04 7f                      | local[4..7] type=i32
 005dc3: 02 40                      | block
 005dc5: 02 40                      |   block
 005dc7: 20 02                      |     local.get 2
 005dc9: 41 09                      |     i32.const 9
 005dcb: 4b                         |     i32.gt_u
 005dcc: 0d 00                      |     br_if 0
 005dce: 42 00                      |     i64.const 0
 005dd0: 21 03                      |     local.set 3
 005dd2: 20 02                      |     local.get 2
 005dd4: 21 04                      |     local.set 4
 005dd6: 20 01                      |     local.get 1
 005dd8: 21 05                      |     local.set 5
 005dda: 03 40                      |     loop
 005ddc: 02 40                      |       block
 005dde: 20 04                      |         local.get 4
 005de0: 0d 00                      |         br_if 0
 005de2: 20 03                      |         local.get 3
 005de4: 42 08                      |         i64.const 8
 005de6: 86                         |         i64.shl
 005de7: 42 0e                      |         i64.const 14
 005de9: 84                         |         i64.or
 005dea: 21 03                      |         local.set 3
 005dec: 0c 03                      |         br 3
 005dee: 0b                         |       end
 005def: 41 01                      |       i32.const 1
 005df1: 21 06                      |       local.set 6
 005df3: 02 40                      |       block
 005df5: 20 05                      |         local.get 5
 005df7: 2d 00 00                   |         i32.load8_u 0 0
 005dfa: 22 07                      |         local.tee 7
 005dfc: 41 df 00                   |         i32.const 95
 005dff: 46                         |         i32.eq
 005e00: 0d 00                      |         br_if 0
 005e02: 02 40                      |         block
 005e04: 20 07                      |           local.get 7
 005e06: 41 50                      |           i32.const 4294967248
 005e08: 6a                         |           i32.add
 005e09: 41 ff 01                   |           i32.const 255
 005e0c: 71                         |           i32.and
 005e0d: 41 0a                      |           i32.const 10
 005e0f: 49                         |           i32.lt_u
 005e10: 0d 00                      |           br_if 0
 005e12: 02 40                      |           block
 005e14: 20 07                      |             local.get 7
 005e16: 41 bf 7f                   |             i32.const 4294967231
 005e19: 6a                         |             i32.add
 005e1a: 41 ff 01                   |             i32.const 255
 005e1d: 71                         |             i32.and
 005e1e: 41 1a                      |             i32.const 26
 005e20: 49                         |             i32.lt_u
 005e21: 0d 00                      |             br_if 0
 005e23: 20 07                      |             local.get 7
 005e25: 41 9f 7f                   |             i32.const 4294967199
 005e28: 6a                         |             i32.add
 005e29: 41 ff 01                   |             i32.const 255
 005e2c: 71                         |             i32.and
 005e2d: 41 19                      |             i32.const 25
 005e2f: 4b                         |             i32.gt_u
 005e30: 0d 04                      |             br_if 4
 005e32: 20 07                      |             local.get 7
 005e34: 41 45                      |             i32.const 4294967237
 005e36: 6a                         |             i32.add
 005e37: 21 06                      |             local.set 6
 005e39: 0c 02                      |             br 2
 005e3b: 0b                         |           end
 005e3c: 20 07                      |           local.get 7
 005e3e: 41 4b                      |           i32.const 4294967243
 005e40: 6a                         |           i32.add
 005e41: 21 06                      |           local.set 6
 005e43: 0c 01                      |           br 1
 005e45: 0b                         |         end
 005e46: 20 07                      |         local.get 7
 005e48: 41 52                      |         i32.const 4294967250
 005e4a: 6a                         |         i32.add
 005e4b: 21 06                      |         local.set 6
 005e4d: 0b                         |       end
 005e4e: 20 03                      |       local.get 3
 005e50: 42 06                      |       i64.const 6
 005e52: 86                         |       i64.shl
 005e53: 20 06                      |       local.get 6
 005e55: ad                         |       i64.extend_i32_u
 005e56: 42 ff 01                   |       i64.const 255
 005e59: 83                         |       i64.and
 005e5a: 84                         |       i64.or
 005e5b: 21 03                      |       local.set 3
 005e5d: 20 04                      |       local.get 4
 005e5f: 41 7f                      |       i32.const 4294967295
 005e61: 6a                         |       i32.add
 005e62: 21 04                      |       local.set 4
 005e64: 20 05                      |       local.get 5
 005e66: 41 01                      |       i32.const 1
 005e68: 6a                         |       i32.add
 005e69: 21 05                      |       local.set 5
 005e6b: 0c 00                      |       br 0
 005e6d: 0b                         |     end
 005e6e: 0b                         |   end
 005e6f: 20 01                      |   local.get 1
 005e71: ad                         |   i64.extend_i32_u
 005e72: 42 20                      |   i64.const 32
 005e74: 86                         |   i64.shl
 005e75: 42 04                      |   i64.const 4
 005e77: 84                         |   i64.or
 005e78: 20 02                      |   local.get 2
 005e7a: ad                         |   i64.extend_i32_u
 005e7b: 42 20                      |   i64.const 32
 005e7d: 86                         |   i64.shl
 005e7e: 42 04                      |   i64.const 4
 005e80: 84                         |   i64.or
 005e81: 10 93 80 80 80 00          |   call 19 <b.j>
 005e87: 21 03                      |   local.set 3
 005e89: 0b                         | end
 005e8a: 20 00                      | local.get 0
 005e8c: 42 00                      | i64.const 0
 005e8e: 37 03 00                   | i64.store 3 0
 005e91: 20 00                      | local.get 0
 005e93: 20 03                      | local.get 3
 005e95: 37 03 08                   | i64.store 3 8
 005e98: 0b                         | end
005e9a func[177]:
 005e9b: 01 7f                      | local[3] type=i32
 005e9d: 23 80 80 80 80 00          | global.get 0
 005ea3: 41 10                      | i32.const 16
 005ea5: 6b                         | i32.sub
 005ea6: 22 03                      | local.tee 3
 005ea8: 24 80 80 80 80 00          | global.set 0
 005eae: 20 03                      | local.get 3
 005eb0: 20 02                      | local.get 2
 005eb2: 37 03 08                   | i64.store 3 8
 005eb5: 20 03                      | local.get 3
 005eb7: 20 01                      | local.get 1
 005eb9: 37 03 00                   | i64.store 3 0
 005ebc: 20 03                      | local.get 3
 005ebe: 41 02                      | i32.const 2
 005ec0: 10 b0 80 80 80 00          | call 48
 005ec6: 21 02                      | local.set 2
 005ec8: 20 00                      | local.get 0
 005eca: 42 00                      | i64.const 0
 005ecc: 37 03 00                   | i64.store 3 0
 005ecf: 20 00                      | local.get 0
 005ed1: 20 02                      | local.get 2
 005ed3: 37 03 08                   | i64.store 3 8
 005ed6: 20 03                      | local.get 3
 005ed8: 41 10                      | i32.const 16
 005eda: 6a                         | i32.add
 005edb: 24 80 80 80 80 00          | global.set 0
 005ee1: 0b                         | end
005ee3 func[178]:
 005ee4: 01 7f                      | local[3] type=i32
 005ee6: 01 7e                      | local[4] type=i64
 005ee8: 23 80 80 80 80 00          | global.get 0
 005eee: 41 10                      | i32.const 16
 005ef0: 6b                         | i32.sub
 005ef1: 22 03                      | local.tee 3
 005ef3: 24 80 80 80 80 00          | global.set 0
 005ef9: 20 03                      | local.get 3
 005efb: 20 01                      | local.get 1
 005efd: 20 02                      | local.get 2
 005eff: 10 b0 81 80 80 00          | call 176
 005f05: 42 01                      | i64.const 1
 005f07: 21 04                      | local.set 4
 005f09: 02 40                      | block
 005f0b: 20 03                      |   local.get 3
 005f0d: 28 02 00                   |   i32.load 2 0
 005f10: 0d 00                      |   br_if 0
 005f12: 20 00                      |   local.get 0
 005f14: 20 03                      |   local.get 3
 005f16: 29 03 08                   |   i64.load 3 8
 005f19: 37 03 08                   |   i64.store 3 8
 005f1c: 42 00                      |   i64.const 0
 005f1e: 21 04                      |   local.set 4
 005f20: 0b                         | end
 005f21: 20 00                      | local.get 0
 005f23: 20 04                      | local.get 4
 005f25: 37 03 00                   | i64.store 3 0
 005f28: 20 03                      | local.get 3
 005f2a: 41 10                      | i32.const 16
 005f2c: 6a                         | i32.add
 005f2d: 24 80 80 80 80 00          | global.set 0
 005f33: 0b                         | end
005f35 func[179] <_>:
 005f36: 0b                         | end
005f38 func[180]:
 005f39: 01 7f                      | local[2] type=i32
 005f3b: 23 80 80 80 80 00          | global.get 0
 005f41: 41 10                      | i32.const 16
 005f43: 6b                         | i32.sub
 005f44: 22 02                      | local.tee 2
 005f46: 24 80 80 80 80 00          | global.set 0
 005f4c: 20 02                      | local.get 2
 005f4e: 20 01                      | local.get 1
 005f50: 37 03 08                   | i64.store 3 8
 005f53: 20 02                      | local.get 2
 005f55: 41 08                      | i32.const 8
 005f57: 6a                         | i32.add
 005f58: 41 01                      | i32.const 1
 005f5a: 10 b0 80 80 80 00          | call 48
 005f60: 21 01                      | local.set 1
 005f62: 20 00                      | local.get 0
 005f64: 42 00                      | i64.const 0
 005f66: 37 03 00                   | i64.store 3 0
 005f69: 20 00                      | local.get 0
 005f6b: 20 01                      | local.get 1
 005f6d: 37 03 08                   | i64.store 3 8
 005f70: 20 02                      | local.get 2
 005f72: 41 10                      | i32.const 16
 005f74: 6a                         | i32.add
 005f75: 24 80 80 80 80 00          | global.set 0
 005f7b: 0b                         | end
005f7d func[181]:
 005f7e: 20 00                      | local.get 0
 005f80: 10 dc 80 80 80 00          | call 92
 005f86: 20 01                      | local.get 1
 005f88: ad                         | i64.extend_i32_u
 005f89: 42 20                      | i64.const 32
 005f8b: 86                         | i64.shl
 005f8c: 42 04                      | i64.const 4
 005f8e: 84                         | i64.or
 005f8f: 42 01                      | i64.const 1
 005f91: 10 83 80 80 80 00          | call 3 <l._>
 005f97: 1a                         | drop
 005f98: 0b                         | end
005f9a func[182]:
 005f9b: 20 00                      | local.get 0
 005f9d: 20 01                      | local.get 1
 005f9f: 42 01                      | i64.const 1
 005fa1: 10 a9 81 80 80 00          | call 169
 005fa7: 0b                         | end
005faa func[183]:
 005fab: 01 7f                      | local[1] type=i32
 005fad: 01 7e                      | local[2] type=i64
 005faf: 23 80 80 80 80 00          | global.get 0
 005fb5: 41 30                      | i32.const 48
 005fb7: 6b                         | i32.sub
 005fb8: 22 01                      | local.tee 1
 005fba: 24 80 80 80 80 00          | global.set 0
 005fc0: 20 01                      | local.get 1
 005fc2: 20 00                      | local.get 0
 005fc4: 29 03 00                   | i64.load 3 0
 005fc7: 37 03 00                   | i64.store 3 0
 005fca: 20 01                      | local.get 1
 005fcc: 20 00                      | local.get 0
 005fce: 28 02 0c                   | i32.load 2 12
 005fd1: 29 03 00                   | i64.load 3 0
 005fd4: 37 03 10                   | i64.store 3 16
 005fd7: 20 01                      | local.get 1
 005fd9: 20 00                      | local.get 0
 005fdb: 28 02 08                   | i32.load 2 8
 005fde: 29 03 00                   | i64.load 3 0
 005fe1: 37 03 08                   | i64.store 3 8
 005fe4: 41 00                      | i32.const 0
 005fe6: 21 00                      | local.set 0
 005fe8: 03 7e                      | loop i64
 005fea: 02 40                      |   block
 005fec: 20 00                      |     local.get 0
 005fee: 41 18                      |     i32.const 24
 005ff0: 47                         |     i32.ne
 005ff1: 0d 00                      |     br_if 0
 005ff3: 41 00                      |     i32.const 0
 005ff5: 21 00                      |     local.set 0
 005ff7: 02 40                      |     block
 005ff9: 03 40                      |       loop
 005ffb: 20 00                      |         local.get 0
 005ffd: 41 18                      |         i32.const 24
 005fff: 46                         |         i32.eq
 006000: 0d 01                      |         br_if 1
 006002: 20 01                      |         local.get 1
 006004: 41 18                      |         i32.const 24
 006006: 6a                         |         i32.add
 006007: 20 00                      |         local.get 0
 006009: 6a                         |         i32.add
 00600a: 20 01                      |         local.get 1
 00600c: 20 00                      |         local.get 0
 00600e: 6a                         |         i32.add
 00600f: 29 03 00                   |         i64.load 3 0
 006012: 37 03 00                   |         i64.store 3 0
 006015: 20 00                      |         local.get 0
 006017: 41 08                      |         i32.const 8
 006019: 6a                         |         i32.add
 00601a: 21 00                      |         local.set 0
 00601c: 0c 00                      |         br 0
 00601e: 0b                         |       end
 00601f: 0b                         |     end
 006020: 20 01                      |     local.get 1
 006022: 41 18                      |     i32.const 24
 006024: 6a                         |     i32.add
 006025: 41 03                      |     i32.const 3
 006027: 10 b0 80 80 80 00          |     call 48
 00602d: 21 02                      |     local.set 2
 00602f: 20 01                      |     local.get 1
 006031: 41 30                      |     i32.const 48
 006033: 6a                         |     i32.add
 006034: 24 80 80 80 80 00          |     global.set 0
 00603a: 20 02                      |     local.get 2
 00603c: 0f                         |     return
 00603d: 0b                         |   end
 00603e: 20 01                      |   local.get 1
 006040: 41 18                      |   i32.const 24
 006042: 6a                         |   i32.add
 006043: 20 00                      |   local.get 0
 006045: 6a                         |   i32.add
 006046: 42 02                      |   i64.const 2
 006048: 37 03 00                   |   i64.store 3 0
 00604b: 20 00                      |   local.get 0
 00604d: 41 08                      |   i32.const 8
 00604f: 6a                         |   i32.add
 006050: 21 00                      |   local.set 0
 006052: 0c 00                      |   br 0
 006054: 0b                         | end
 006055: 0b                         | end
006057 func[184]:
 006058: 42 83 80 80 80 90 98 01    | i64.const 5226975199235
 006060: 10 de 80 80 80 00          | call 94
 006066: 00                         | unreachable
 006067: 0b                         | end
006069 func[185]:
 00606a: 03 7f                      | local[3..5] type=i32
 00606c: 41 00                      | i32.const 0
 00606e: 21 03                      | local.set 3
 006070: 02 40                      | block
 006072: 20 02                      |   local.get 2
 006074: 45                         |   i32.eqz
 006075: 0d 00                      |   br_if 0
 006077: 02 40                      |   block
 006079: 03 40                      |     loop
 00607b: 20 00                      |       local.get 0
 00607d: 2d 00 00                   |       i32.load8_u 0 0
 006080: 22 04                      |       local.tee 4
 006082: 20 01                      |       local.get 1
 006084: 2d 00 00                   |       i32.load8_u 0 0
 006087: 22 05                      |       local.tee 5
 006089: 47                         |       i32.ne
 00608a: 0d 01                      |       br_if 1
 00608c: 20 00                      |       local.get 0
 00608e: 41 01                      |       i32.const 1
 006090: 6a                         |       i32.add
 006091: 21 00                      |       local.set 0
 006093: 20 01                      |       local.get 1
 006095: 41 01                      |       i32.const 1
 006097: 6a                         |       i32.add
 006098: 21 01                      |       local.set 1
 00609a: 20 02                      |       local.get 2
 00609c: 41 7f                      |       i32.const 4294967295
 00609e: 6a                         |       i32.add
 00609f: 22 02                      |       local.tee 2
 0060a1: 45                         |       i32.eqz
 0060a2: 0d 02                      |       br_if 2
 0060a4: 0c 00                      |       br 0
 0060a6: 0b                         |     end
 0060a7: 0b                         |   end
 0060a8: 20 04                      |   local.get 4
 0060aa: 20 05                      |   local.get 5
 0060ac: 6b                         |   i32.sub
 0060ad: 21 03                      |   local.set 3
 0060af: 0b                         | end
 0060b0: 20 03                      | local.get 3
 0060b2: 0b                         | end
0060b5 func[186]:
 0060b6: 01 7f                      | local[6] type=i32
 0060b8: 02 7e                      | local[7..8] type=i64
 0060ba: 02 7f                      | local[9..10] type=i32
 0060bc: 23 80 80 80 80 00          | global.get 0
 0060c2: 41 e0 00                   | i32.const 96
 0060c5: 6b                         | i32.sub
 0060c6: 22 06                      | local.tee 6
 0060c8: 24 80 80 80 80 00          | global.set 0
 0060ce: 42 00                      | i64.const 0
 0060d0: 21 07                      | local.set 7
 0060d2: 42 00                      | i64.const 0
 0060d4: 21 08                      | local.set 8
 0060d6: 41 00                      | i32.const 0
 0060d8: 21 09                      | local.set 9
 0060da: 02 40                      | block
 0060dc: 20 01                      |   local.get 1
 0060de: 20 02                      |   local.get 2
 0060e0: 84                         |   i64.or
 0060e1: 50                         |   i64.eqz
 0060e2: 0d 00                      |   br_if 0
 0060e4: 20 03                      |   local.get 3
 0060e6: 20 04                      |   local.get 4
 0060e8: 84                         |   i64.or
 0060e9: 50                         |   i64.eqz
 0060ea: 0d 00                      |   br_if 0
 0060ec: 42 00                      |   i64.const 0
 0060ee: 20 03                      |   local.get 3
 0060f0: 7d                         |   i64.sub
 0060f1: 20 03                      |   local.get 3
 0060f3: 20 04                      |   local.get 4
 0060f5: 42 00                      |   i64.const 0
 0060f7: 53                         |   i64.lt_s
 0060f8: 22 09                      |   local.tee 9
 0060fa: 1b                         |   select
 0060fb: 21 07                      |   local.set 7
 0060fd: 42 00                      |   i64.const 0
 0060ff: 20 01                      |   local.get 1
 006101: 7d                         |   i64.sub
 006102: 20 01                      |   local.get 1
 006104: 20 02                      |   local.get 2
 006106: 42 00                      |   i64.const 0
 006108: 53                         |   i64.lt_s
 006109: 22 0a                      |   local.tee 10
 00610b: 1b                         |   select
 00610c: 21 08                      |   local.set 8
 00610e: 42 00                      |   i64.const 0
 006110: 20 04                      |   local.get 4
 006112: 20 03                      |   local.get 3
 006114: 42 00                      |   i64.const 0
 006116: 52                         |   i64.ne
 006117: ad                         |   i64.extend_i32_u
 006118: 7c                         |   i64.add
 006119: 7d                         |   i64.sub
 00611a: 20 04                      |   local.get 4
 00611c: 20 09                      |   local.get 9
 00611e: 1b                         |   select
 00611f: 21 03                      |   local.set 3
 006121: 20 04                      |   local.get 4
 006123: 20 02                      |   local.get 2
 006125: 85                         |   i64.xor
 006126: 21 04                      |   local.set 4
 006128: 02 40                      |   block
 00612a: 02 40                      |     block
 00612c: 42 00                      |       i64.const 0
 00612e: 20 02                      |       local.get 2
 006130: 20 01                      |       local.get 1
 006132: 42 00                      |       i64.const 0
 006134: 52                         |       i64.ne
 006135: ad                         |       i64.extend_i32_u
 006136: 7c                         |       i64.add
 006137: 7d                         |       i64.sub
 006138: 20 02                      |       local.get 2
 00613a: 20 0a                      |       local.get 10
 00613c: 1b                         |       select
 00613d: 22 02                      |       local.tee 2
 00613f: 50                         |       i64.eqz
 006140: 0d 00                      |       br_if 0
 006142: 02 40                      |       block
 006144: 20 03                      |         local.get 3
 006146: 50                         |         i64.eqz
 006147: 0d 00                      |         br_if 0
 006149: 20 06                      |         local.get 6
 00614b: 41 d0 00                   |         i32.const 80
 00614e: 6a                         |         i32.add
 00614f: 20 07                      |         local.get 7
 006151: 20 03                      |         local.get 3
 006153: 20 08                      |         local.get 8
 006155: 20 02                      |         local.get 2
 006157: 10 bf 81 80 80 00          |         call 191
 00615d: 41 01                      |         i32.const 1
 00615f: 21 09                      |         local.set 9
 006161: 20 06                      |         local.get 6
 006163: 29 03 58                   |         i64.load 3 88
 006166: 21 01                      |         local.set 1
 006168: 20 06                      |         local.get 6
 00616a: 29 03 50                   |         i64.load 3 80
 00616d: 21 02                      |         local.set 2
 00616f: 0c 02                      |         br 2
 006171: 0b                         |       end
 006172: 20 06                      |       local.get 6
 006174: 41 c0 00                   |       i32.const 64
 006177: 6a                         |       i32.add
 006178: 20 07                      |       local.get 7
 00617a: 20 03                      |       local.get 3
 00617c: 20 08                      |       local.get 8
 00617e: 42 00                      |       i64.const 0
 006180: 10 bf 81 80 80 00          |       call 191
 006186: 20 06                      |       local.get 6
 006188: 41 30                      |       i32.const 48
 00618a: 6a                         |       i32.add
 00618b: 20 07                      |       local.get 7
 00618d: 20 03                      |       local.get 3
 00618f: 20 02                      |       local.get 2
 006191: 42 00                      |       i64.const 0
 006193: 10 bf 81 80 80 00          |       call 191
 006199: 20 06                      |       local.get 6
 00619b: 29 03 48                   |       i64.load 3 72
 00619e: 22 02                      |       local.tee 2
 0061a0: 20 06                      |       local.get 6
 0061a2: 29 03 30                   |       i64.load 3 48
 0061a5: 7c                         |       i64.add
 0061a6: 22 01                      |       local.tee 1
 0061a8: 20 02                      |       local.get 2
 0061aa: 54                         |       i64.lt_u
 0061ab: 20 06                      |       local.get 6
 0061ad: 29 03 38                   |       i64.load 3 56
 0061b0: 42 00                      |       i64.const 0
 0061b2: 52                         |       i64.ne
 0061b3: 72                         |       i32.or
 0061b4: 21 09                      |       local.set 9
 0061b6: 20 06                      |       local.get 6
 0061b8: 29 03 40                   |       i64.load 3 64
 0061bb: 21 02                      |       local.set 2
 0061bd: 0c 01                      |       br 1
 0061bf: 0b                         |     end
 0061c0: 02 40                      |     block
 0061c2: 20 03                      |       local.get 3
 0061c4: 50                         |       i64.eqz
 0061c5: 0d 00                      |       br_if 0
 0061c7: 20 06                      |       local.get 6
 0061c9: 41 20                      |       i32.const 32
 0061cb: 6a                         |       i32.add
 0061cc: 20 07                      |       local.get 7
 0061ce: 42 00                      |       i64.const 0
 0061d0: 20 08                      |       local.get 8
 0061d2: 20 02                      |       local.get 2
 0061d4: 10 bf 81 80 80 00          |       call 191
 0061da: 20 06                      |       local.get 6
 0061dc: 41 10                      |       i32.const 16
 0061de: 6a                         |       i32.add
 0061df: 20 03                      |       local.get 3
 0061e1: 42 00                      |       i64.const 0
 0061e3: 20 08                      |       local.get 8
 0061e5: 20 02                      |       local.get 2
 0061e7: 10 bf 81 80 80 00          |       call 191
 0061ed: 20 06                      |       local.get 6
 0061ef: 29 03 28                   |       i64.load 3 40
 0061f2: 22 02                      |       local.tee 2
 0061f4: 20 06                      |       local.get 6
 0061f6: 29 03 10                   |       i64.load 3 16
 0061f9: 7c                         |       i64.add
 0061fa: 22 01                      |       local.tee 1
 0061fc: 20 02                      |       local.get 2
 0061fe: 54                         |       i64.lt_u
 0061ff: 20 06                      |       local.get 6
 006201: 29 03 18                   |       i64.load 3 24
 006204: 42 00                      |       i64.const 0
 006206: 52                         |       i64.ne
 006207: 72                         |       i32.or
 006208: 21 09                      |       local.set 9
 00620a: 20 06                      |       local.get 6
 00620c: 29 03 20                   |       i64.load 3 32
 00620f: 21 02                      |       local.set 2
 006211: 0c 01                      |       br 1
 006213: 0b                         |     end
 006214: 20 06                      |     local.get 6
 006216: 20 07                      |     local.get 7
 006218: 20 03                      |     local.get 3
 00621a: 20 08                      |     local.get 8
 00621c: 20 02                      |     local.get 2
 00621e: 10 bf 81 80 80 00          |     call 191
 006224: 41 00                      |     i32.const 0
 006226: 21 09                      |     local.set 9
 006228: 20 06                      |     local.get 6
 00622a: 29 03 08                   |     i64.load 3 8
 00622d: 21 01                      |     local.set 1
 00622f: 20 06                      |     local.get 6
 006231: 29 03 00                   |     i64.load 3 0
 006234: 21 02                      |     local.set 2
 006236: 0b                         |   end
 006237: 42 00                      |   i64.const 0
 006239: 20 02                      |   local.get 2
 00623b: 7d                         |   i64.sub
 00623c: 20 02                      |   local.get 2
 00623e: 20 04                      |   local.get 4
 006240: 42 00                      |   i64.const 0
 006242: 53                         |   i64.lt_s
 006243: 22 0a                      |   local.tee 10
 006245: 1b                         |   select
 006246: 21 08                      |   local.set 8
 006248: 42 00                      |   i64.const 0
 00624a: 20 01                      |   local.get 1
 00624c: 20 02                      |   local.get 2
 00624e: 42 00                      |   i64.const 0
 006250: 52                         |   i64.ne
 006251: ad                         |   i64.extend_i32_u
 006252: 7c                         |   i64.add
 006253: 7d                         |   i64.sub
 006254: 20 01                      |   local.get 1
 006256: 20 0a                      |   local.get 10
 006258: 1b                         |   select
 006259: 22 07                      |   local.tee 7
 00625b: 20 04                      |   local.get 4
 00625d: 85                         |   i64.xor
 00625e: 42 00                      |   i64.const 0
 006260: 59                         |   i64.ge_s
 006261: 0d 00                      |   br_if 0
 006263: 41 01                      |   i32.const 1
 006265: 21 09                      |   local.set 9
 006267: 0b                         | end
 006268: 20 00                      | local.get 0
 00626a: 20 08                      | local.get 8
 00626c: 37 03 00                   | i64.store 3 0
 00626f: 20 05                      | local.get 5
 006271: 20 09                      | local.get 9
 006273: 36 02 00                   | i32.store 2 0
 006276: 20 00                      | local.get 0
 006278: 20 07                      | local.get 7
 00627a: 37 03 08                   | i64.store 3 8
 00627d: 20 06                      | local.get 6
 00627f: 41 e0 00                   | i32.const 96
 006282: 6a                         | i32.add
 006283: 24 80 80 80 80 00          | global.set 0
 006289: 0b                         | end
00628b func[187]:
 00628c: 01 7e                      | local[4] type=i64
 00628e: 02 40                      | block
 006290: 02 40                      |   block
 006292: 20 03                      |     local.get 3
 006294: 41 c0 00                   |     i32.const 64
 006297: 71                         |     i32.and
 006298: 0d 00                      |     br_if 0
 00629a: 20 03                      |     local.get 3
 00629c: 45                         |     i32.eqz
 00629d: 0d 01                      |     br_if 1
 00629f: 20 02                      |     local.get 2
 0062a1: 20 03                      |     local.get 3
 0062a3: 41 3f                      |     i32.const 63
 0062a5: 71                         |     i32.and
 0062a6: ad                         |     i64.extend_i32_u
 0062a7: 22 04                      |     local.tee 4
 0062a9: 86                         |     i64.shl
 0062aa: 20 01                      |     local.get 1
 0062ac: 41 00                      |     i32.const 0
 0062ae: 20 03                      |     local.get 3
 0062b0: 6b                         |     i32.sub
 0062b1: 41 3f                      |     i32.const 63
 0062b3: 71                         |     i32.and
 0062b4: ad                         |     i64.extend_i32_u
 0062b5: 88                         |     i64.shr_u
 0062b6: 84                         |     i64.or
 0062b7: 21 02                      |     local.set 2
 0062b9: 20 01                      |     local.get 1
 0062bb: 20 04                      |     local.get 4
 0062bd: 86                         |     i64.shl
 0062be: 21 01                      |     local.set 1
 0062c0: 0c 01                      |     br 1
 0062c2: 0b                         |   end
 0062c3: 20 01                      |   local.get 1
 0062c5: 20 03                      |   local.get 3
 0062c7: 41 3f                      |   i32.const 63
 0062c9: 71                         |   i32.and
 0062ca: ad                         |   i64.extend_i32_u
 0062cb: 86                         |   i64.shl
 0062cc: 21 02                      |   local.set 2
 0062ce: 42 00                      |   i64.const 0
 0062d0: 21 01                      |   local.set 1
 0062d2: 0b                         | end
 0062d3: 20 00                      | local.get 0
 0062d5: 20 01                      | local.get 1
 0062d7: 37 03 00                   | i64.store 3 0
 0062da: 20 00                      | local.get 0
 0062dc: 20 02                      | local.get 2
 0062de: 37 03 08                   | i64.store 3 8
 0062e1: 0b                         | end
0062e4 func[188]:
 0062e5: 01 7f                      | local[5] type=i32
 0062e7: 01 7e                      | local[6] type=i64
 0062e9: 03 7f                      | local[7..9] type=i32
 0062eb: 04 7e                      | local[10..13] type=i64
 0062ed: 23 80 80 80 80 00          | global.get 0
 0062f3: 41 b0 01                   | i32.const 176
 0062f6: 6b                         | i32.sub
 0062f7: 22 05                      | local.tee 5
 0062f9: 24 80 80 80 80 00          | global.set 0
 0062ff: 42 00                      | i64.const 0
 006301: 21 06                      | local.set 6
 006303: 02 40                      | block
 006305: 02 40                      |   block
 006307: 02 40                      |     block
 006309: 02 40                      |       block
 00630b: 02 40                      |         block
 00630d: 20 04                      |           local.get 4
 00630f: 79                         |           i64.clz
 006310: 20 03                      |           local.get 3
 006312: 79                         |           i64.clz
 006313: 42 c0 00                   |           i64.const 64
 006316: 7c                         |           i64.add
 006317: 20 04                      |           local.get 4
 006319: 42 00                      |           i64.const 0
 00631b: 52                         |           i64.ne
 00631c: 1b                         |           select
 00631d: a7                         |           i32.wrap_i64
 00631e: 22 07                      |           local.tee 7
 006320: 20 02                      |           local.get 2
 006322: 79                         |           i64.clz
 006323: 20 01                      |           local.get 1
 006325: 79                         |           i64.clz
 006326: 42 c0 00                   |           i64.const 64
 006329: 7c                         |           i64.add
 00632a: 20 02                      |           local.get 2
 00632c: 42 00                      |           i64.const 0
 00632e: 52                         |           i64.ne
 00632f: 1b                         |           select
 006330: a7                         |           i32.wrap_i64
 006331: 22 08                      |           local.tee 8
 006333: 4d                         |           i32.le_u
 006334: 0d 00                      |           br_if 0
 006336: 20 08                      |           local.get 8
 006338: 41 3f                      |           i32.const 63
 00633a: 4b                         |           i32.gt_u
 00633b: 0d 01                      |           br_if 1
 00633d: 20 07                      |           local.get 7
 00633f: 41 df 00                   |           i32.const 95
 006342: 4b                         |           i32.gt_u
 006343: 0d 02                      |           br_if 2
 006345: 20 07                      |           local.get 7
 006347: 20 08                      |           local.get 8
 006349: 6b                         |           i32.sub
 00634a: 41 20                      |           i32.const 32
 00634c: 49                         |           i32.lt_u
 00634d: 0d 03                      |           br_if 3
 00634f: 20 05                      |           local.get 5
 006351: 41 a0 01                   |           i32.const 160
 006354: 6a                         |           i32.add
 006355: 20 03                      |           local.get 3
 006357: 20 04                      |           local.get 4
 006359: 41 e0 00                   |           i32.const 96
 00635c: 20 07                      |           local.get 7
 00635e: 6b                         |           i32.sub
 00635f: 22 09                      |           local.tee 9
 006361: 10 be 81 80 80 00          |           call 190
 006367: 20 05                      |           local.get 5
 006369: 35 02 a0 01                |           i64.load32_u 2 160
 00636d: 42 01                      |           i64.const 1
 00636f: 7c                         |           i64.add
 006370: 21 0a                      |           local.set 10
 006372: 42 00                      |           i64.const 0
 006374: 21 0b                      |           local.set 11
 006376: 42 00                      |           i64.const 0
 006378: 21 06                      |           local.set 6
 00637a: 02 40                      |           block
 00637c: 02 40                      |             block
 00637e: 02 40                      |               block
 006380: 02 40                      |                 block
 006382: 03 40                      |                   loop
 006384: 20 05                      |                     local.get 5
 006386: 41 90 01                   |                     i32.const 144
 006389: 6a                         |                     i32.add
 00638a: 20 01                      |                     local.get 1
 00638c: 20 02                      |                     local.get 2
 00638e: 41 c0 00                   |                     i32.const 64
 006391: 20 08                      |                     local.get 8
 006393: 6b                         |                     i32.sub
 006394: 22 08                      |                     local.tee 8
 006396: 10 be 81 80 80 00          |                     call 190
 00639c: 20 05                      |                     local.get 5
 00639e: 29 03 90 01                |                     i64.load 3 144
 0063a2: 21 0c                      |                     local.set 12
 0063a4: 02 40                      |                     block
 0063a6: 20 08                      |                       local.get 8
 0063a8: 20 09                      |                       local.get 9
 0063aa: 4f                         |                       i32.ge_u
 0063ab: 0d 00                      |                       br_if 0
 0063ad: 20 05                      |                       local.get 5
 0063af: 41 d0 00                   |                       i32.const 80
 0063b2: 6a                         |                       i32.add
 0063b3: 20 03                      |                       local.get 3
 0063b5: 20 04                      |                       local.get 4
 0063b7: 20 08                      |                       local.get 8
 0063b9: 10 be 81 80 80 00          |                       call 190
 0063bf: 02 40                      |                       block
 0063c1: 02 40                      |                         block
 0063c3: 20 05                      |                           local.get 5
 0063c5: 29 03 50                   |                           i64.load 3 80
 0063c8: 22 0a                      |                           local.tee 10
 0063ca: 50                         |                           i64.eqz
 0063cb: 45                         |                           i32.eqz
 0063cc: 0d 00                      |                           br_if 0
 0063ce: 0c 01                      |                           br 1
 0063d0: 0b                         |                         end
 0063d1: 20 0c                      |                         local.get 12
 0063d3: 20 0a                      |                         local.get 10
 0063d5: 80                         |                         i64.div_u
 0063d6: 21 0c                      |                         local.set 12
 0063d8: 0b                         |                       end
 0063d9: 20 05                      |                       local.get 5
 0063db: 41 c0 00                   |                       i32.const 64
 0063de: 6a                         |                       i32.add
 0063df: 20 03                      |                       local.get 3
 0063e1: 20 04                      |                       local.get 4
 0063e3: 20 0c                      |                       local.get 12
 0063e5: 42 00                      |                       i64.const 0
 0063e7: 10 bf 81 80 80 00          |                       call 191
 0063ed: 02 40                      |                       block
 0063ef: 20 01                      |                         local.get 1
 0063f1: 20 05                      |                         local.get 5
 0063f3: 29 03 40                   |                         i64.load 3 64
 0063f6: 22 0d                      |                         local.tee 13
 0063f8: 54                         |                         i64.lt_u
 0063f9: 22 08                      |                         local.tee 8
 0063fb: 20 02                      |                         local.get 2
 0063fd: 20 05                      |                         local.get 5
 0063ff: 29 03 48                   |                         i64.load 3 72
 006402: 22 0a                      |                         local.tee 10
 006404: 54                         |                         i64.lt_u
 006405: 20 02                      |                         local.get 2
 006407: 20 0a                      |                         local.get 10
 006409: 51                         |                         i64.eq
 00640a: 1b                         |                         select
 00640b: 0d 00                      |                         br_if 0
 00640d: 20 02                      |                         local.get 2
 00640f: 20 0a                      |                         local.get 10
 006411: 7d                         |                         i64.sub
 006412: 20 08                      |                         local.get 8
 006414: ad                         |                         i64.extend_i32_u
 006415: 7d                         |                         i64.sub
 006416: 21 02                      |                         local.set 2
 006418: 20 01                      |                         local.get 1
 00641a: 20 0d                      |                         local.get 13
 00641c: 7d                         |                         i64.sub
 00641d: 21 01                      |                         local.set 1
 00641f: 20 06                      |                         local.get 6
 006421: 20 0b                      |                         local.get 11
 006423: 20 0c                      |                         local.get 12
 006425: 7c                         |                         i64.add
 006426: 22 0c                      |                         local.tee 12
 006428: 20 0b                      |                         local.get 11
 00642a: 54                         |                         i64.lt_u
 00642b: ad                         |                         i64.extend_i32_u
 00642c: 7c                         |                         i64.add
 00642d: 21 06                      |                         local.set 6
 00642f: 0c 0b                      |                         br 11
 006431: 0b                         |                       end
 006432: 20 02                      |                       local.get 2
 006434: 20 04                      |                       local.get 4
 006436: 7c                         |                       i64.add
 006437: 20 01                      |                       local.get 1
 006439: 20 03                      |                       local.get 3
 00643b: 7c                         |                       i64.add
 00643c: 22 04                      |                       local.tee 4
 00643e: 20 01                      |                       local.get 1
 006440: 54                         |                       i64.lt_u
 006441: ad                         |                       i64.extend_i32_u
 006442: 7c                         |                       i64.add
 006443: 20 0a                      |                       local.get 10
 006445: 7d                         |                       i64.sub
 006446: 20 04                      |                       local.get 4
 006448: 20 0d                      |                       local.get 13
 00644a: 54                         |                       i64.lt_u
 00644b: ad                         |                       i64.extend_i32_u
 00644c: 7d                         |                       i64.sub
 00644d: 21 02                      |                       local.set 2
 00644f: 20 04                      |                       local.get 4
 006451: 20 0d                      |                       local.get 13
 006453: 7d                         |                       i64.sub
 006454: 21 01                      |                       local.set 1
 006456: 20 06                      |                       local.get 6
 006458: 20 0c                      |                       local.get 12
 00645a: 20 0b                      |                       local.get 11
 00645c: 7c                         |                       i64.add
 00645d: 42 7f                      |                       i64.const 18446744073709551615
 00645f: 7c                         |                       i64.add
 006460: 22 0c                      |                       local.tee 12
 006462: 20 0b                      |                       local.get 11
 006464: 54                         |                       i64.lt_u
 006465: ad                         |                       i64.extend_i32_u
 006466: 7c                         |                       i64.add
 006467: 21 06                      |                       local.set 6
 006469: 0c 0a                      |                       br 10
 00646b: 0b                         |                     end
 00646c: 20 05                      |                     local.get 5
 00646e: 41 80 01                   |                     i32.const 128
 006471: 6a                         |                     i32.add
 006472: 20 0c                      |                     local.get 12
 006474: 20 0a                      |                     local.get 10
 006476: 80                         |                     i64.div_u
 006477: 22 0c                      |                     local.tee 12
 006479: 42 00                      |                     i64.const 0
 00647b: 20 08                      |                     local.get 8
 00647d: 20 09                      |                     local.get 9
 00647f: 6b                         |                     i32.sub
 006480: 22 08                      |                     local.tee 8
 006482: 10 bb 81 80 80 00          |                     call 187
 006488: 20 05                      |                     local.get 5
 00648a: 41 f0 00                   |                     i32.const 112
 00648d: 6a                         |                     i32.add
 00648e: 20 03                      |                     local.get 3
 006490: 20 04                      |                     local.get 4
 006492: 20 0c                      |                     local.get 12
 006494: 42 00                      |                     i64.const 0
 006496: 10 bf 81 80 80 00          |                     call 191
 00649c: 20 05                      |                     local.get 5
 00649e: 41 e0 00                   |                     i32.const 96
 0064a1: 6a                         |                     i32.add
 0064a2: 20 05                      |                     local.get 5
 0064a4: 29 03 70                   |                     i64.load 3 112
 0064a7: 20 05                      |                     local.get 5
 0064a9: 29 03 78                   |                     i64.load 3 120
 0064ac: 20 08                      |                     local.get 8
 0064ae: 10 bb 81 80 80 00          |                     call 187
 0064b4: 20 05                      |                     local.get 5
 0064b6: 29 03 88 01                |                     i64.load 3 136
 0064ba: 20 06                      |                     local.get 6
 0064bc: 7c                         |                     i64.add
 0064bd: 20 05                      |                     local.get 5
 0064bf: 29 03 80 01                |                     i64.load 3 128
 0064c3: 22 06                      |                     local.tee 6
 0064c5: 20 0b                      |                     local.get 11
 0064c7: 7c                         |                     i64.add
 0064c8: 22 0b                      |                     local.tee 11
 0064ca: 20 06                      |                     local.get 6
 0064cc: 54                         |                     i64.lt_u
 0064cd: ad                         |                     i64.extend_i32_u
 0064ce: 7c                         |                     i64.add
 0064cf: 21 06                      |                     local.set 6
 0064d1: 20 07                      |                     local.get 7
 0064d3: 20 02                      |                     local.get 2
 0064d5: 20 05                      |                     local.get 5
 0064d7: 29 03 68                   |                     i64.load 3 104
 0064da: 7d                         |                     i64.sub
 0064db: 20 01                      |                     local.get 1
 0064dd: 20 05                      |                     local.get 5
 0064df: 29 03 60                   |                     i64.load 3 96
 0064e2: 22 0c                      |                     local.tee 12
 0064e4: 54                         |                     i64.lt_u
 0064e5: ad                         |                     i64.extend_i32_u
 0064e6: 7d                         |                     i64.sub
 0064e7: 22 02                      |                     local.tee 2
 0064e9: 79                         |                     i64.clz
 0064ea: 20 01                      |                     local.get 1
 0064ec: 20 0c                      |                     local.get 12
 0064ee: 7d                         |                     i64.sub
 0064ef: 22 01                      |                     local.tee 1
 0064f1: 79                         |                     i64.clz
 0064f2: 42 c0 00                   |                     i64.const 64
 0064f5: 7c                         |                     i64.add
 0064f6: 20 02                      |                     local.get 2
 0064f8: 42 00                      |                     i64.const 0
 0064fa: 52                         |                     i64.ne
 0064fb: 1b                         |                     select
 0064fc: a7                         |                     i32.wrap_i64
 0064fd: 22 08                      |                     local.tee 8
 0064ff: 4d                         |                     i32.le_u
 006500: 0d 01                      |                     br_if 1
 006502: 20 08                      |                     local.get 8
 006504: 41 3f                      |                     i32.const 63
 006506: 4d                         |                     i32.le_u
 006507: 0d 00                      |                     br_if 0
 006509: 0b                         |                   end
 00650a: 20 03                      |                   local.get 3
 00650c: 50                         |                   i64.eqz
 00650d: 45                         |                   i32.eqz
 00650e: 0d 01                      |                   br_if 1
 006510: 0c 02                      |                   br 2
 006512: 0b                         |                 end
 006513: 20 01                      |                 local.get 1
 006515: 20 03                      |                 local.get 3
 006517: 54                         |                 i64.lt_u
 006518: 22 08                      |                 local.tee 8
 00651a: 20 02                      |                 local.get 2
 00651c: 20 04                      |                 local.get 4
 00651e: 54                         |                 i64.lt_u
 00651f: 20 02                      |                 local.get 2
 006521: 20 04                      |                 local.get 4
 006523: 51                         |                 i64.eq
 006524: 1b                         |                 select
 006525: 45                         |                 i32.eqz
 006526: 0d 02                      |                 br_if 2
 006528: 20 0b                      |                 local.get 11
 00652a: 21 0c                      |                 local.set 12
 00652c: 0c 07                      |                 br 7
 00652e: 0b                         |               end
 00652f: 20 01                      |               local.get 1
 006531: 20 03                      |               local.get 3
 006533: 80                         |               i64.div_u
 006534: 21 02                      |               local.set 2
 006536: 0b                         |             end
 006537: 20 01                      |             local.get 1
 006539: 20 03                      |             local.get 3
 00653b: 82                         |             i64.rem_u
 00653c: 21 01                      |             local.set 1
 00653e: 20 06                      |             local.get 6
 006540: 20 0b                      |             local.get 11
 006542: 20 02                      |             local.get 2
 006544: 7c                         |             i64.add
 006545: 22 0c                      |             local.tee 12
 006547: 20 0b                      |             local.get 11
 006549: 54                         |             i64.lt_u
 00654a: ad                         |             i64.extend_i32_u
 00654b: 7c                         |             i64.add
 00654c: 21 06                      |             local.set 6
 00654e: 42 00                      |             i64.const 0
 006550: 21 02                      |             local.set 2
 006552: 0c 05                      |             br 5
 006554: 0b                         |           end
 006555: 20 02                      |           local.get 2
 006557: 20 04                      |           local.get 4
 006559: 7d                         |           i64.sub
 00655a: 20 08                      |           local.get 8
 00655c: ad                         |           i64.extend_i32_u
 00655d: 7d                         |           i64.sub
 00655e: 21 02                      |           local.set 2
 006560: 20 01                      |           local.get 1
 006562: 20 03                      |           local.get 3
 006564: 7d                         |           i64.sub
 006565: 21 01                      |           local.set 1
 006567: 20 06                      |           local.get 6
 006569: 20 0b                      |           local.get 11
 00656b: 42 01                      |           i64.const 1
 00656d: 7c                         |           i64.add
 00656e: 22 0c                      |           local.tee 12
 006570: 50                         |           i64.eqz
 006571: ad                         |           i64.extend_i32_u
 006572: 7c                         |           i64.add
 006573: 21 06                      |           local.set 6
 006575: 0c 04                      |           br 4
 006577: 0b                         |         end
 006578: 20 02                      |         local.get 2
 00657a: 20 04                      |         local.get 4
 00657c: 42 00                      |         i64.const 0
 00657e: 20 01                      |         local.get 1
 006580: 20 03                      |         local.get 3
 006582: 5a                         |         i64.ge_u
 006583: 20 02                      |         local.get 2
 006585: 20 04                      |         local.get 4
 006587: 5a                         |         i64.ge_u
 006588: 20 02                      |         local.get 2
 00658a: 20 04                      |         local.get 4
 00658c: 51                         |         i64.eq
 00658d: 1b                         |         select
 00658e: 22 08                      |         local.tee 8
 006590: 1b                         |         select
 006591: 7d                         |         i64.sub
 006592: 20 01                      |         local.get 1
 006594: 20 03                      |         local.get 3
 006596: 42 00                      |         i64.const 0
 006598: 20 08                      |         local.get 8
 00659a: 1b                         |         select
 00659b: 22 04                      |         local.tee 4
 00659d: 54                         |         i64.lt_u
 00659e: ad                         |         i64.extend_i32_u
 00659f: 7d                         |         i64.sub
 0065a0: 21 02                      |         local.set 2
 0065a2: 20 01                      |         local.get 1
 0065a4: 20 04                      |         local.get 4
 0065a6: 7d                         |         i64.sub
 0065a7: 21 01                      |         local.set 1
 0065a9: 20 08                      |         local.get 8
 0065ab: ad                         |         i64.extend_i32_u
 0065ac: 21 0c                      |         local.set 12
 0065ae: 0c 03                      |         br 3
 0065b0: 0b                         |       end
 0065b1: 20 01                      |       local.get 1
 0065b3: 20 01                      |       local.get 1
 0065b5: 20 03                      |       local.get 3
 0065b7: 80                         |       i64.div_u
 0065b8: 22 0c                      |       local.tee 12
 0065ba: 20 03                      |       local.get 3
 0065bc: 7e                         |       i64.mul
 0065bd: 7d                         |       i64.sub
 0065be: 21 01                      |       local.set 1
 0065c0: 42 00                      |       i64.const 0
 0065c2: 21 06                      |       local.set 6
 0065c4: 42 00                      |       i64.const 0
 0065c6: 21 02                      |       local.set 2
 0065c8: 0c 02                      |       br 2
 0065ca: 0b                         |     end
 0065cb: 20 02                      |     local.get 2
 0065cd: 20 02                      |     local.get 2
 0065cf: 20 03                      |     local.get 3
 0065d1: 42 ff ff ff ff 0f          |     i64.const 4294967295
 0065d7: 83                         |     i64.and
 0065d8: 22 04                      |     local.tee 4
 0065da: 80                         |     i64.div_u
 0065db: 22 06                      |     local.tee 6
 0065dd: 20 03                      |     local.get 3
 0065df: 7e                         |     i64.mul
 0065e0: 7d                         |     i64.sub
 0065e1: 42 20                      |     i64.const 32
 0065e3: 86                         |     i64.shl
 0065e4: 20 01                      |     local.get 1
 0065e6: 42 20                      |     i64.const 32
 0065e8: 88                         |     i64.shr_u
 0065e9: 22 0c                      |     local.tee 12
 0065eb: 84                         |     i64.or
 0065ec: 20 04                      |     local.get 4
 0065ee: 80                         |     i64.div_u
 0065ef: 22 02                      |     local.tee 2
 0065f1: 42 20                      |     i64.const 32
 0065f3: 86                         |     i64.shl
 0065f4: 20 0c                      |     local.get 12
 0065f6: 20 02                      |     local.get 2
 0065f8: 20 03                      |     local.get 3
 0065fa: 7e                         |     i64.mul
 0065fb: 7d                         |     i64.sub
 0065fc: 42 20                      |     i64.const 32
 0065fe: 86                         |     i64.shl
 0065ff: 20 01                      |     local.get 1
 006601: 42 ff ff ff ff 0f          |     i64.const 4294967295
 006607: 83                         |     i64.and
 006608: 84                         |     i64.or
 006609: 22 01                      |     local.tee 1
 00660b: 20 04                      |     local.get 4
 00660d: 80                         |     i64.div_u
 00660e: 22 03                      |     local.tee 3
 006610: 84                         |     i64.or
 006611: 21 0c                      |     local.set 12
 006613: 20 01                      |     local.get 1
 006615: 20 03                      |     local.get 3
 006617: 20 04                      |     local.get 4
 006619: 7e                         |     i64.mul
 00661a: 7d                         |     i64.sub
 00661b: 21 01                      |     local.set 1
 00661d: 20 02                      |     local.get 2
 00661f: 42 20                      |     i64.const 32
 006621: 88                         |     i64.shr_u
 006622: 20 06                      |     local.get 6
 006624: 84                         |     i64.or
 006625: 21 06                      |     local.set 6
 006627: 42 00                      |     i64.const 0
 006629: 21 02                      |     local.set 2
 00662b: 0c 01                      |     br 1
 00662d: 0b                         |   end
 00662e: 20 05                      |   local.get 5
 006630: 41 30                      |   i32.const 48
 006632: 6a                         |   i32.add
 006633: 20 03                      |   local.get 3
 006635: 20 04                      |   local.get 4
 006637: 41 c0 00                   |   i32.const 64
 00663a: 20 08                      |   local.get 8
 00663c: 6b                         |   i32.sub
 00663d: 22 08                      |   local.tee 8
 00663f: 10 be 81 80 80 00          |   call 190
 006645: 20 05                      |   local.get 5
 006647: 41 20                      |   i32.const 32
 006649: 6a                         |   i32.add
 00664a: 20 01                      |   local.get 1
 00664c: 20 02                      |   local.get 2
 00664e: 20 08                      |   local.get 8
 006650: 10 be 81 80 80 00          |   call 190
 006656: 42 00                      |   i64.const 0
 006658: 21 06                      |   local.set 6
 00665a: 20 05                      |   local.get 5
 00665c: 41 10                      |   i32.const 16
 00665e: 6a                         |   i32.add
 00665f: 20 03                      |   local.get 3
 006661: 42 00                      |   i64.const 0
 006663: 20 05                      |   local.get 5
 006665: 29 03 20                   |   i64.load 3 32
 006668: 20 05                      |   local.get 5
 00666a: 29 03 30                   |   i64.load 3 48
 00666d: 80                         |   i64.div_u
 00666e: 22 0c                      |   local.tee 12
 006670: 42 00                      |   i64.const 0
 006672: 10 bf 81 80 80 00          |   call 191
 006678: 20 05                      |   local.get 5
 00667a: 20 04                      |   local.get 4
 00667c: 42 00                      |   i64.const 0
 00667e: 20 0c                      |   local.get 12
 006680: 42 00                      |   i64.const 0
 006682: 10 bf 81 80 80 00          |   call 191
 006688: 20 05                      |   local.get 5
 00668a: 29 03 10                   |   i64.load 3 16
 00668d: 21 0a                      |   local.set 10
 00668f: 02 40                      |   block
 006691: 02 40                      |     block
 006693: 20 05                      |       local.get 5
 006695: 29 03 08                   |       i64.load 3 8
 006698: 20 05                      |       local.get 5
 00669a: 29 03 18                   |       i64.load 3 24
 00669d: 22 0d                      |       local.tee 13
 00669f: 20 05                      |       local.get 5
 0066a1: 29 03 00                   |       i64.load 3 0
 0066a4: 7c                         |       i64.add
 0066a5: 22 0b                      |       local.tee 11
 0066a7: 20 0d                      |       local.get 13
 0066a9: 54                         |       i64.lt_u
 0066aa: ad                         |       i64.extend_i32_u
 0066ab: 7c                         |       i64.add
 0066ac: 42 00                      |       i64.const 0
 0066ae: 52                         |       i64.ne
 0066af: 0d 00                      |       br_if 0
 0066b1: 20 01                      |       local.get 1
 0066b3: 20 0a                      |       local.get 10
 0066b5: 54                         |       i64.lt_u
 0066b6: 22 08                      |       local.tee 8
 0066b8: 20 02                      |       local.get 2
 0066ba: 20 0b                      |       local.get 11
 0066bc: 54                         |       i64.lt_u
 0066bd: 20 02                      |       local.get 2
 0066bf: 20 0b                      |       local.get 11
 0066c1: 51                         |       i64.eq
 0066c2: 1b                         |       select
 0066c3: 45                         |       i32.eqz
 0066c4: 0d 01                      |       br_if 1
 0066c6: 0b                         |     end
 0066c7: 20 04                      |     local.get 4
 0066c9: 20 02                      |     local.get 2
 0066cb: 7c                         |     i64.add
 0066cc: 20 03                      |     local.get 3
 0066ce: 20 01                      |     local.get 1
 0066d0: 7c                         |     i64.add
 0066d1: 22 01                      |     local.tee 1
 0066d3: 20 03                      |     local.get 3
 0066d5: 54                         |     i64.lt_u
 0066d6: ad                         |     i64.extend_i32_u
 0066d7: 7c                         |     i64.add
 0066d8: 20 0b                      |     local.get 11
 0066da: 7d                         |     i64.sub
 0066db: 20 01                      |     local.get 1
 0066dd: 20 0a                      |     local.get 10
 0066df: 54                         |     i64.lt_u
 0066e0: ad                         |     i64.extend_i32_u
 0066e1: 7d                         |     i64.sub
 0066e2: 21 02                      |     local.set 2
 0066e4: 20 0c                      |     local.get 12
 0066e6: 42 7f                      |     i64.const 18446744073709551615
 0066e8: 7c                         |     i64.add
 0066e9: 21 0c                      |     local.set 12
 0066eb: 20 01                      |     local.get 1
 0066ed: 20 0a                      |     local.get 10
 0066ef: 7d                         |     i64.sub
 0066f0: 21 01                      |     local.set 1
 0066f2: 0c 01                      |     br 1
 0066f4: 0b                         |   end
 0066f5: 20 02                      |   local.get 2
 0066f7: 20 0b                      |   local.get 11
 0066f9: 7d                         |   i64.sub
 0066fa: 20 08                      |   local.get 8
 0066fc: ad                         |   i64.extend_i32_u
 0066fd: 7d                         |   i64.sub
 0066fe: 21 02                      |   local.set 2
 006700: 20 01                      |   local.get 1
 006702: 20 0a                      |   local.get 10
 006704: 7d                         |   i64.sub
 006705: 21 01                      |   local.set 1
 006707: 42 00                      |   i64.const 0
 006709: 21 06                      |   local.set 6
 00670b: 0b                         | end
 00670c: 20 00                      | local.get 0
 00670e: 20 01                      | local.get 1
 006710: 37 03 10                   | i64.store 3 16
 006713: 20 00                      | local.get 0
 006715: 20 0c                      | local.get 12
 006717: 37 03 00                   | i64.store 3 0
 00671a: 20 00                      | local.get 0
 00671c: 20 02                      | local.get 2
 00671e: 37 03 18                   | i64.store 3 24
 006721: 20 00                      | local.get 0
 006723: 20 06                      | local.get 6
 006725: 37 03 08                   | i64.store 3 8
 006728: 20 05                      | local.get 5
 00672a: 41 b0 01                   | i32.const 176
 00672d: 6a                         | i32.add
 00672e: 24 80 80 80 80 00          | global.set 0
 006734: 0b                         | end
006737 func[189]:
 006738: 02 7f                      | local[5..6] type=i32
 00673a: 23 80 80 80 80 00          | global.get 0
 006740: 41 20                      | i32.const 32
 006742: 6b                         | i32.sub
 006743: 22 05                      | local.tee 5
 006745: 24 80 80 80 80 00          | global.set 0
 00674b: 20 05                      | local.get 5
 00674d: 42 00                      | i64.const 0
 00674f: 20 01                      | local.get 1
 006751: 7d                         | i64.sub
 006752: 20 01                      | local.get 1
 006754: 20 02                      | local.get 2
 006756: 42 00                      | i64.const 0
 006758: 53                         | i64.lt_s
 006759: 22 06                      | local.tee 6
 00675b: 1b                         | select
 00675c: 42 00                      | i64.const 0
 00675e: 20 02                      | local.get 2
 006760: 20 01                      | local.get 1
 006762: 42 00                      | i64.const 0
 006764: 52                         | i64.ne
 006765: ad                         | i64.extend_i32_u
 006766: 7c                         | i64.add
 006767: 7d                         | i64.sub
 006768: 20 02                      | local.get 2
 00676a: 20 06                      | local.get 6
 00676c: 1b                         | select
 00676d: 42 00                      | i64.const 0
 00676f: 20 03                      | local.get 3
 006771: 7d                         | i64.sub
 006772: 20 03                      | local.get 3
 006774: 20 04                      | local.get 4
 006776: 42 00                      | i64.const 0
 006778: 53                         | i64.lt_s
 006779: 22 06                      | local.tee 6
 00677b: 1b                         | select
 00677c: 42 00                      | i64.const 0
 00677e: 20 04                      | local.get 4
 006780: 20 03                      | local.get 3
 006782: 42 00                      | i64.const 0
 006784: 52                         | i64.ne
 006785: ad                         | i64.extend_i32_u
 006786: 7c                         | i64.add
 006787: 7d                         | i64.sub
 006788: 20 04                      | local.get 4
 00678a: 20 06                      | local.get 6
 00678c: 1b                         | select
 00678d: 10 bc 81 80 80 00          | call 188
 006793: 20 05                      | local.get 5
 006795: 29 03 08                   | i64.load 3 8
 006798: 21 03                      | local.set 3
 00679a: 20 00                      | local.get 0
 00679c: 42 00                      | i64.const 0
 00679e: 20 05                      | local.get 5
 0067a0: 29 03 00                   | i64.load 3 0
 0067a3: 22 01                      | local.tee 1
 0067a5: 7d                         | i64.sub
 0067a6: 20 01                      | local.get 1
 0067a8: 20 04                      | local.get 4
 0067aa: 20 02                      | local.get 2
 0067ac: 85                         | i64.xor
 0067ad: 42 00                      | i64.const 0
 0067af: 53                         | i64.lt_s
 0067b0: 22 06                      | local.tee 6
 0067b2: 1b                         | select
 0067b3: 37 03 00                   | i64.store 3 0
 0067b6: 20 00                      | local.get 0
 0067b8: 42 00                      | i64.const 0
 0067ba: 20 03                      | local.get 3
 0067bc: 20 01                      | local.get 1
 0067be: 42 00                      | i64.const 0
 0067c0: 52                         | i64.ne
 0067c1: ad                         | i64.extend_i32_u
 0067c2: 7c                         | i64.add
 0067c3: 7d                         | i64.sub
 0067c4: 20 03                      | local.get 3
 0067c6: 20 06                      | local.get 6
 0067c8: 1b                         | select
 0067c9: 37 03 08                   | i64.store 3 8
 0067cc: 20 05                      | local.get 5
 0067ce: 41 20                      | i32.const 32
 0067d0: 6a                         | i32.add
 0067d1: 24 80 80 80 80 00          | global.set 0
 0067d7: 0b                         | end
0067d9 func[190]:
 0067da: 01 7e                      | local[4] type=i64
 0067dc: 02 40                      | block
 0067de: 02 40                      |   block
 0067e0: 20 03                      |     local.get 3
 0067e2: 41 c0 00                   |     i32.const 64
 0067e5: 71                         |     i32.and
 0067e6: 0d 00                      |     br_if 0
 0067e8: 20 03                      |     local.get 3
 0067ea: 45                         |     i32.eqz
 0067eb: 0d 01                      |     br_if 1
 0067ed: 20 02                      |     local.get 2
 0067ef: 41 00                      |     i32.const 0
 0067f1: 20 03                      |     local.get 3
 0067f3: 6b                         |     i32.sub
 0067f4: 41 3f                      |     i32.const 63
 0067f6: 71                         |     i32.and
 0067f7: ad                         |     i64.extend_i32_u
 0067f8: 86                         |     i64.shl
 0067f9: 20 01                      |     local.get 1
 0067fb: 20 03                      |     local.get 3
 0067fd: 41 3f                      |     i32.const 63
 0067ff: 71                         |     i32.and
 006800: ad                         |     i64.extend_i32_u
 006801: 22 04                      |     local.tee 4
 006803: 88                         |     i64.shr_u
 006804: 84                         |     i64.or
 006805: 21 01                      |     local.set 1
 006807: 20 02                      |     local.get 2
 006809: 20 04                      |     local.get 4
 00680b: 88                         |     i64.shr_u
 00680c: 21 02                      |     local.set 2
 00680e: 0c 01                      |     br 1
 006810: 0b                         |   end
 006811: 20 02                      |   local.get 2
 006813: 20 03                      |   local.get 3
 006815: 41 3f                      |   i32.const 63
 006817: 71                         |   i32.and
 006818: ad                         |   i64.extend_i32_u
 006819: 88                         |   i64.shr_u
 00681a: 21 01                      |   local.set 1
 00681c: 42 00                      |   i64.const 0
 00681e: 21 02                      |   local.set 2
 006820: 0b                         | end
 006821: 20 00                      | local.get 0
 006823: 20 01                      | local.get 1
 006825: 37 03 00                   | i64.store 3 0
 006828: 20 00                      | local.get 0
 00682a: 20 02                      | local.get 2
 00682c: 37 03 08                   | i64.store 3 8
 00682f: 0b                         | end
006831 func[191]:
 006832: 06 7e                      | local[5..10] type=i64
 006834: 20 00                      | local.get 0
 006836: 20 03                      | local.get 3
 006838: 42 ff ff ff ff 0f          | i64.const 4294967295
 00683e: 83                         | i64.and
 00683f: 22 05                      | local.tee 5
 006841: 20 01                      | local.get 1
 006843: 42 ff ff ff ff 0f          | i64.const 4294967295
 006849: 83                         | i64.and
 00684a: 22 06                      | local.tee 6
 00684c: 7e                         | i64.mul
 00684d: 22 07                      | local.tee 7
 00684f: 20 03                      | local.get 3
 006851: 42 20                      | i64.const 32
 006853: 88                         | i64.shr_u
 006854: 22 08                      | local.tee 8
 006856: 20 06                      | local.get 6
 006858: 7e                         | i64.mul
 006859: 22 06                      | local.tee 6
 00685b: 20 05                      | local.get 5
 00685d: 20 01                      | local.get 1
 00685f: 42 20                      | i64.const 32
 006861: 88                         | i64.shr_u
 006862: 22 09                      | local.tee 9
 006864: 7e                         | i64.mul
 006865: 7c                         | i64.add
 006866: 22 05                      | local.tee 5
 006868: 42 20                      | i64.const 32
 00686a: 86                         | i64.shl
 00686b: 7c                         | i64.add
 00686c: 22 0a                      | local.tee 10
 00686e: 37 03 00                   | i64.store 3 0
 006871: 20 00                      | local.get 0
 006873: 20 08                      | local.get 8
 006875: 20 09                      | local.get 9
 006877: 7e                         | i64.mul
 006878: 20 05                      | local.get 5
 00687a: 20 06                      | local.get 6
 00687c: 54                         | i64.lt_u
 00687d: ad                         | i64.extend_i32_u
 00687e: 42 20                      | i64.const 32
 006880: 86                         | i64.shl
 006881: 20 05                      | local.get 5
 006883: 42 20                      | i64.const 32
 006885: 88                         | i64.shr_u
 006886: 84                         | i64.or
 006887: 7c                         | i64.add
 006888: 20 0a                      | local.get 10
 00688a: 20 07                      | local.get 7
 00688c: 54                         | i64.lt_u
 00688d: ad                         | i64.extend_i32_u
 00688e: 7c                         | i64.add
 00688f: 20 04                      | local.get 4
 006891: 20 01                      | local.get 1
 006893: 7e                         | i64.mul
 006894: 20 03                      | local.get 3
 006896: 20 02                      | local.get 2
 006898: 7e                         | i64.mul
 006899: 7c                         | i64.add
 00689a: 7c                         | i64.add
 00689b: 37 03 08                   | i64.store 3 8
 00689e: 0b                         | end
